
test_uart.riscv:     file format elf64-littleriscv


Disassembly of section .text:

0000000080001048 <vprintfmt>:
    80001048:	710d                	addi	sp,sp,-352
    8000104a:	eaa2                	sd	s0,336(sp)
    8000104c:	e6a6                	sd	s1,328(sp)
    8000104e:	e2ca                	sd	s2,320(sp)
    80001050:	fa52                	sd	s4,304(sp)
    80001052:	f25a                	sd	s6,288(sp)
    80001054:	ee5e                	sd	s7,280(sp)
    80001056:	ee86                	sd	ra,344(sp)
    80001058:	fe4e                	sd	s3,312(sp)
    8000105a:	f656                	sd	s5,296(sp)
    8000105c:	ea62                	sd	s8,272(sp)
    8000105e:	e666                	sd	s9,264(sp)
    80001060:	e26a                	sd	s10,256(sp)
    80001062:	892a                	mv	s2,a0
    80001064:	84ae                	mv	s1,a1
    80001066:	8432                	mv	s0,a2
    80001068:	8bb6                	mv	s7,a3
    8000106a:	02500a13          	li	s4,37
    8000106e:	00001b17          	auipc	s6,0x1
    80001072:	362b0b13          	addi	s6,s6,866 # 800023d0 <main+0x90>
    80001076:	a029                	j	80001080 <vprintfmt+0x38>
    80001078:	c131                	beqz	a0,800010bc <vprintfmt+0x74>
    8000107a:	85a6                	mv	a1,s1
    8000107c:	0405                	addi	s0,s0,1
    8000107e:	9902                	jalr	s2
    80001080:	00044503          	lbu	a0,0(s0)
    80001084:	ff451ae3          	bne	a0,s4,80001078 <vprintfmt+0x30>
    80001088:	00144683          	lbu	a3,1(s0)
    8000108c:	00140a93          	addi	s5,s0,1
    80001090:	8756                	mv	a4,s5
    80001092:	02000c13          	li	s8,32
    80001096:	59fd                	li	s3,-1
    80001098:	5cfd                	li	s9,-1
    8000109a:	4501                	li	a0,0
    8000109c:	05500613          	li	a2,85
    800010a0:	45a5                	li	a1,9
    800010a2:	fdd6879b          	addiw	a5,a3,-35
    800010a6:	0ff7f793          	andi	a5,a5,255
    800010aa:	00170413          	addi	s0,a4,1
    800010ae:	1cf66f63          	bltu	a2,a5,8000128c <vprintfmt+0x244>
    800010b2:	078a                	slli	a5,a5,0x2
    800010b4:	97da                	add	a5,a5,s6
    800010b6:	439c                	lw	a5,0(a5)
    800010b8:	97da                	add	a5,a5,s6
    800010ba:	8782                	jr	a5
    800010bc:	60f6                	ld	ra,344(sp)
    800010be:	6456                	ld	s0,336(sp)
    800010c0:	64b6                	ld	s1,328(sp)
    800010c2:	6916                	ld	s2,320(sp)
    800010c4:	79f2                	ld	s3,312(sp)
    800010c6:	7a52                	ld	s4,304(sp)
    800010c8:	7ab2                	ld	s5,296(sp)
    800010ca:	7b12                	ld	s6,288(sp)
    800010cc:	6bf2                	ld	s7,280(sp)
    800010ce:	6c52                	ld	s8,272(sp)
    800010d0:	6cb2                	ld	s9,264(sp)
    800010d2:	6d12                	ld	s10,256(sp)
    800010d4:	6135                	addi	sp,sp,352
    800010d6:	8082                	ret
    800010d8:	4721                	li	a4,8
    800010da:	4785                	li	a5,1
    800010dc:	008b8693          	addi	a3,s7,8
    800010e0:	08a7c763          	blt	a5,a0,8000116e <vprintfmt+0x126>
    800010e4:	e549                	bnez	a0,8000116e <vprintfmt+0x126>
    800010e6:	000be783          	lwu	a5,0(s7)
    800010ea:	8bb6                	mv	s7,a3
    800010ec:	02e7f9b3          	remu	s3,a5,a4
    800010f0:	2c01                	sext.w	s8,s8
    800010f2:	0054                	addi	a3,sp,4
    800010f4:	4a85                	li	s5,1
    800010f6:	c04e                	sw	s3,0(sp)
    800010f8:	00e7f463          	bleu	a4,a5,80001100 <vprintfmt+0xb8>
    800010fc:	aaf9                	j	800012da <vprintfmt+0x292>
    800010fe:	8aea                	mv	s5,s10
    80001100:	02e7d7b3          	divu	a5,a5,a4
    80001104:	0691                	addi	a3,a3,4
    80001106:	001a8d1b          	addiw	s10,s5,1
    8000110a:	02e7f9b3          	remu	s3,a5,a4
    8000110e:	ff36ae23          	sw	s3,-4(a3)
    80001112:	fee7f6e3          	bleu	a4,a5,800010fe <vprintfmt+0xb6>
    80001116:	019d5963          	ble	s9,s10,80001128 <vprintfmt+0xe0>
    8000111a:	2c81                	sext.w	s9,s9
    8000111c:	3cfd                	addiw	s9,s9,-1
    8000111e:	85a6                	mv	a1,s1
    80001120:	8562                	mv	a0,s8
    80001122:	9902                	jalr	s2
    80001124:	ff9d4ce3          	blt	s10,s9,8000111c <vprintfmt+0xd4>
    80001128:	002a9c13          	slli	s8,s5,0x2
    8000112c:	01810ab3          	add	s5,sp,s8
    80001130:	418a8c33          	sub	s8,s5,s8
    80001134:	4ca5                	li	s9,9
    80001136:	a021                	j	8000113e <vprintfmt+0xf6>
    80001138:	ffcaa983          	lw	s3,-4(s5)
    8000113c:	1af1                	addi	s5,s5,-4
    8000113e:	05700513          	li	a0,87
    80001142:	013ce463          	bltu	s9,s3,8000114a <vprintfmt+0x102>
    80001146:	03000513          	li	a0,48
    8000114a:	85a6                	mv	a1,s1
    8000114c:	0135053b          	addw	a0,a0,s3
    80001150:	9902                	jalr	s2
    80001152:	ff5c13e3          	bne	s8,s5,80001138 <vprintfmt+0xf0>
    80001156:	b72d                	j	80001080 <vprintfmt+0x38>
    80001158:	03000513          	li	a0,48
    8000115c:	85a6                	mv	a1,s1
    8000115e:	9902                	jalr	s2
    80001160:	85a6                	mv	a1,s1
    80001162:	07800513          	li	a0,120
    80001166:	9902                	jalr	s2
    80001168:	008b8693          	addi	a3,s7,8
    8000116c:	4741                	li	a4,16
    8000116e:	000bb783          	ld	a5,0(s7)
    80001172:	8bb6                	mv	s7,a3
    80001174:	bfa5                	j	800010ec <vprintfmt+0xa4>
    80001176:	000bba83          	ld	s5,0(s7)
    8000117a:	0ba1                	addi	s7,s7,8
    8000117c:	180a8163          	beqz	s5,800012fe <vprintfmt+0x2b6>
    80001180:	15905763          	blez	s9,800012ce <vprintfmt+0x286>
    80001184:	02d00793          	li	a5,45
    80001188:	10fc1c63          	bne	s8,a5,800012a0 <vprintfmt+0x258>
    8000118c:	000ac503          	lbu	a0,0(s5)
    80001190:	c105                	beqz	a0,800011b0 <vprintfmt+0x168>
    80001192:	5c7d                	li	s8,-1
    80001194:	0009c563          	bltz	s3,8000119e <vprintfmt+0x156>
    80001198:	39fd                	addiw	s3,s3,-1
    8000119a:	01898963          	beq	s3,s8,800011ac <vprintfmt+0x164>
    8000119e:	85a6                	mv	a1,s1
    800011a0:	0a85                	addi	s5,s5,1
    800011a2:	9902                	jalr	s2
    800011a4:	000ac503          	lbu	a0,0(s5)
    800011a8:	3cfd                	addiw	s9,s9,-1
    800011aa:	f56d                	bnez	a0,80001194 <vprintfmt+0x14c>
    800011ac:	ed905ae3          	blez	s9,80001080 <vprintfmt+0x38>
    800011b0:	3cfd                	addiw	s9,s9,-1
    800011b2:	85a6                	mv	a1,s1
    800011b4:	02000513          	li	a0,32
    800011b8:	9902                	jalr	s2
    800011ba:	fe0c9be3          	bnez	s9,800011b0 <vprintfmt+0x168>
    800011be:	b5c9                	j	80001080 <vprintfmt+0x38>
    800011c0:	4729                	li	a4,10
    800011c2:	bf21                	j	800010da <vprintfmt+0x92>
    800011c4:	00174683          	lbu	a3,1(a4)
    800011c8:	8722                	mv	a4,s0
    800011ca:	bde1                	j	800010a2 <vprintfmt+0x5a>
    800011cc:	85a6                	mv	a1,s1
    800011ce:	02500513          	li	a0,37
    800011d2:	9902                	jalr	s2
    800011d4:	b575                	j	80001080 <vprintfmt+0x38>
    800011d6:	4741                	li	a4,16
    800011d8:	b709                	j	800010da <vprintfmt+0x92>
    800011da:	000ba983          	lw	s3,0(s7)
    800011de:	00174683          	lbu	a3,1(a4)
    800011e2:	0ba1                	addi	s7,s7,8
    800011e4:	8722                	mv	a4,s0
    800011e6:	ea0cdee3          	bgez	s9,800010a2 <vprintfmt+0x5a>
    800011ea:	8cce                	mv	s9,s3
    800011ec:	59fd                	li	s3,-1
    800011ee:	bd55                	j	800010a2 <vprintfmt+0x5a>
    800011f0:	00174683          	lbu	a3,1(a4)
    800011f4:	02d00c13          	li	s8,45
    800011f8:	8722                	mv	a4,s0
    800011fa:	b565                	j	800010a2 <vprintfmt+0x5a>
    800011fc:	fffcc793          	not	a5,s9
    80001200:	97fd                	srai	a5,a5,0x3f
    80001202:	00fcfcb3          	and	s9,s9,a5
    80001206:	00174683          	lbu	a3,1(a4)
    8000120a:	2c81                	sext.w	s9,s9
    8000120c:	8722                	mv	a4,s0
    8000120e:	bd51                	j	800010a2 <vprintfmt+0x5a>
    80001210:	00174683          	lbu	a3,1(a4)
    80001214:	03000c13          	li	s8,48
    80001218:	8722                	mv	a4,s0
    8000121a:	b561                	j	800010a2 <vprintfmt+0x5a>
    8000121c:	fd06899b          	addiw	s3,a3,-48
    80001220:	00174683          	lbu	a3,1(a4)
    80001224:	8722                	mv	a4,s0
    80001226:	fd06879b          	addiw	a5,a3,-48
    8000122a:	0006881b          	sext.w	a6,a3
    8000122e:	faf5ece3          	bltu	a1,a5,800011e6 <vprintfmt+0x19e>
    80001232:	0705                	addi	a4,a4,1
    80001234:	0029979b          	slliw	a5,s3,0x2
    80001238:	00074683          	lbu	a3,0(a4)
    8000123c:	013789bb          	addw	s3,a5,s3
    80001240:	0019999b          	slliw	s3,s3,0x1
    80001244:	010989bb          	addw	s3,s3,a6
    80001248:	fd06879b          	addiw	a5,a3,-48
    8000124c:	fd09899b          	addiw	s3,s3,-48
    80001250:	0006881b          	sext.w	a6,a3
    80001254:	fcf5ffe3          	bleu	a5,a1,80001232 <vprintfmt+0x1ea>
    80001258:	b779                	j	800011e6 <vprintfmt+0x19e>
    8000125a:	000ba503          	lw	a0,0(s7)
    8000125e:	85a6                	mv	a1,s1
    80001260:	0ba1                	addi	s7,s7,8
    80001262:	9902                	jalr	s2
    80001264:	bd31                	j	80001080 <vprintfmt+0x38>
    80001266:	4785                	li	a5,1
    80001268:	008b8a93          	addi	s5,s7,8
    8000126c:	00a7c363          	blt	a5,a0,80001272 <vprintfmt+0x22a>
    80001270:	c93d                	beqz	a0,800012e6 <vprintfmt+0x29e>
    80001272:	000bb983          	ld	s3,0(s7)
    80001276:	0609cb63          	bltz	s3,800012ec <vprintfmt+0x2a4>
    8000127a:	87ce                	mv	a5,s3
    8000127c:	8bd6                	mv	s7,s5
    8000127e:	4729                	li	a4,10
    80001280:	b5b5                	j	800010ec <vprintfmt+0xa4>
    80001282:	00174683          	lbu	a3,1(a4)
    80001286:	2505                	addiw	a0,a0,1
    80001288:	8722                	mv	a4,s0
    8000128a:	bd21                	j	800010a2 <vprintfmt+0x5a>
    8000128c:	85a6                	mv	a1,s1
    8000128e:	02500513          	li	a0,37
    80001292:	9902                	jalr	s2
    80001294:	8456                	mv	s0,s5
    80001296:	b3ed                	j	80001080 <vprintfmt+0x38>
    80001298:	00001a97          	auipc	s5,0x1
    8000129c:	0f0a8a93          	addi	s5,s5,240 # 80002388 <main+0x48>
    800012a0:	06098d63          	beqz	s3,8000131a <vprintfmt+0x2d2>
    800012a4:	000ac783          	lbu	a5,0(s5)
    800012a8:	cbad                	beqz	a5,8000131a <vprintfmt+0x2d2>
    800012aa:	001a8793          	addi	a5,s5,1
    800012ae:	013a8633          	add	a2,s5,s3
    800012b2:	a029                	j	800012bc <vprintfmt+0x274>
    800012b4:	0785                	addi	a5,a5,1
    800012b6:	fff7c703          	lbu	a4,-1(a5)
    800012ba:	cb25                	beqz	a4,8000132a <vprintfmt+0x2e2>
    800012bc:	86be                	mv	a3,a5
    800012be:	fef61be3          	bne	a2,a5,800012b4 <vprintfmt+0x26c>
    800012c2:	415606bb          	subw	a3,a2,s5
    800012c6:	40dc8cbb          	subw	s9,s9,a3
    800012ca:	05904863          	bgtz	s9,8000131a <vprintfmt+0x2d2>
    800012ce:	000ac503          	lbu	a0,0(s5)
    800012d2:	da0507e3          	beqz	a0,80001080 <vprintfmt+0x38>
    800012d6:	5c7d                	li	s8,-1
    800012d8:	bd75                	j	80001194 <vprintfmt+0x14c>
    800012da:	4785                	li	a5,1
    800012dc:	4a81                	li	s5,0
    800012de:	4d05                	li	s10,1
    800012e0:	e397cde3          	blt	a5,s9,8000111a <vprintfmt+0xd2>
    800012e4:	b591                	j	80001128 <vprintfmt+0xe0>
    800012e6:	000ba983          	lw	s3,0(s7)
    800012ea:	b771                	j	80001276 <vprintfmt+0x22e>
    800012ec:	85a6                	mv	a1,s1
    800012ee:	02d00513          	li	a0,45
    800012f2:	9902                	jalr	s2
    800012f4:	8bd6                	mv	s7,s5
    800012f6:	413007b3          	neg	a5,s3
    800012fa:	4729                	li	a4,10
    800012fc:	bbc5                	j	800010ec <vprintfmt+0xa4>
    800012fe:	01905663          	blez	s9,8000130a <vprintfmt+0x2c2>
    80001302:	02d00793          	li	a5,45
    80001306:	f8fc19e3          	bne	s8,a5,80001298 <vprintfmt+0x250>
    8000130a:	00001a97          	auipc	s5,0x1
    8000130e:	07ea8a93          	addi	s5,s5,126 # 80002388 <main+0x48>
    80001312:	02800513          	li	a0,40
    80001316:	5c7d                	li	s8,-1
    80001318:	bdb5                	j	80001194 <vprintfmt+0x14c>
    8000131a:	2c01                	sext.w	s8,s8
    8000131c:	3cfd                	addiw	s9,s9,-1
    8000131e:	85a6                	mv	a1,s1
    80001320:	8562                	mv	a0,s8
    80001322:	9902                	jalr	s2
    80001324:	fe0c9ce3          	bnez	s9,8000131c <vprintfmt+0x2d4>
    80001328:	b75d                	j	800012ce <vprintfmt+0x286>
    8000132a:	415686bb          	subw	a3,a3,s5
    8000132e:	bf61                	j	800012c6 <vprintfmt+0x27e>

0000000080001330 <sprintf_putch.3222>:
    80001330:	619c                	ld	a5,0(a1)
    80001332:	00a78023          	sb	a0,0(a5)
    80001336:	619c                	ld	a5,0(a1)
    80001338:	0785                	addi	a5,a5,1
    8000133a:	e19c                	sd	a5,0(a1)
    8000133c:	8082                	ret

000000008000133e <putchar>:
    8000133e:	04022803          	lw	a6,64(tp) # 40 <buflen.3105>
    80001342:	00020793          	mv	a5,tp
    80001346:	97c2                	add	a5,a5,a6
    80001348:	7159                	addi	sp,sp,-112
    8000134a:	0018071b          	addiw	a4,a6,1
    8000134e:	04e22023          	sw	a4,64(tp) # 40 <buflen.3105>
    80001352:	00a78023          	sb	a0,0(a5)
    80001356:	45a9                	li	a1,10
    80001358:	03f10793          	addi	a5,sp,63
    8000135c:	fc07f793          	andi	a5,a5,-64
    80001360:	00b50963          	beq	a0,a1,80001372 <putchar+0x34>
    80001364:	04000593          	li	a1,64
    80001368:	00b70563          	beq	a4,a1,80001372 <putchar+0x34>
    8000136c:	4501                	li	a0,0
    8000136e:	6165                	addi	sp,sp,112
    80001370:	8082                	ret
    80001372:	04000593          	li	a1,64
    80001376:	e38c                	sd	a1,0(a5)
    80001378:	4585                	li	a1,1
    8000137a:	e78c                	sd	a1,8(a5)
    8000137c:	00020693          	mv	a3,tp
    80001380:	eb94                	sd	a3,16(a5)
    80001382:	ef98                	sd	a4,24(a5)
    80001384:	0ff0000f          	fence
    80001388:	00000697          	auipc	a3,0x0
    8000138c:	cb868693          	addi	a3,a3,-840 # 80001040 <fromhost>
    80001390:	00000717          	auipc	a4,0x0
    80001394:	c6f73823          	sd	a5,-912(a4) # 80001000 <tohost>
    80001398:	6298                	ld	a4,0(a3)
    8000139a:	df7d                	beqz	a4,80001398 <putchar+0x5a>
    8000139c:	00000717          	auipc	a4,0x0
    800013a0:	ca073223          	sd	zero,-860(a4) # 80001040 <fromhost>
    800013a4:	0ff0000f          	fence
    800013a8:	04022023          	sw	zero,64(tp) # 40 <buflen.3105>
    800013ac:	639c                	ld	a5,0(a5)
    800013ae:	4501                	li	a0,0
    800013b0:	6165                	addi	sp,sp,112
    800013b2:	8082                	ret

00000000800013b4 <setStats>:
    800013b4:	b00027f3          	csrr	a5,mcycle
    800013b8:	00001717          	auipc	a4,0x1
    800013bc:	18070713          	addi	a4,a4,384 # 80002538 <counters>
    800013c0:	e919                	bnez	a0,800013d6 <setStats+0x22>
    800013c2:	6314                	ld	a3,0(a4)
    800013c4:	00001617          	auipc	a2,0x1
    800013c8:	fcc60613          	addi	a2,a2,-52 # 80002390 <main+0x50>
    800013cc:	00001597          	auipc	a1,0x1
    800013d0:	16c5be23          	sd	a2,380(a1) # 80002548 <counter_names>
    800013d4:	8f95                	sub	a5,a5,a3
    800013d6:	00001697          	auipc	a3,0x1
    800013da:	16f6b123          	sd	a5,354(a3) # 80002538 <counters>
    800013de:	b02027f3          	csrr	a5,minstret
    800013e2:	e919                	bnez	a0,800013f8 <setStats+0x44>
    800013e4:	6718                	ld	a4,8(a4)
    800013e6:	00001697          	auipc	a3,0x1
    800013ea:	fb268693          	addi	a3,a3,-78 # 80002398 <main+0x58>
    800013ee:	00001617          	auipc	a2,0x1
    800013f2:	16d63123          	sd	a3,354(a2) # 80002550 <counter_names+0x8>
    800013f6:	8f99                	sub	a5,a5,a4
    800013f8:	00001717          	auipc	a4,0x1
    800013fc:	14f73423          	sd	a5,328(a4) # 80002540 <counters+0x8>
    80001400:	8082                	ret

0000000080001402 <tohost_exit>:
    80001402:	00151793          	slli	a5,a0,0x1
    80001406:	0017e793          	ori	a5,a5,1
    8000140a:	00000717          	auipc	a4,0x0
    8000140e:	bef73b23          	sd	a5,-1034(a4) # 80001000 <tohost>
    80001412:	a001                	j	80001412 <tohost_exit+0x10>

0000000080001414 <handle_trap>:
    80001414:	6785                	lui	a5,0x1
    80001416:	a7378793          	addi	a5,a5,-1421 # a73 <_tbss_end+0xa2f>
    8000141a:	00000717          	auipc	a4,0x0
    8000141e:	bef73323          	sd	a5,-1050(a4) # 80001000 <tohost>
    80001422:	a001                	j	80001422 <handle_trap+0xe>

0000000080001424 <exit>:
    80001424:	1141                	addi	sp,sp,-16
    80001426:	e406                	sd	ra,8(sp)
    80001428:	fdbff0ef          	jal	ra,80001402 <tohost_exit>

000000008000142c <abort>:
    8000142c:	10d00793          	li	a5,269
    80001430:	00000717          	auipc	a4,0x0
    80001434:	bcf73823          	sd	a5,-1072(a4) # 80001000 <tohost>
    80001438:	a001                	j	80001438 <abort+0xc>

000000008000143a <printstr>:
    8000143a:	00054783          	lbu	a5,0(a0)
    8000143e:	7159                	addi	sp,sp,-112
    80001440:	03f10693          	addi	a3,sp,63
    80001444:	fc06f693          	andi	a3,a3,-64
    80001448:	c3b9                	beqz	a5,8000148e <printstr+0x54>
    8000144a:	87aa                	mv	a5,a0
    8000144c:	0785                	addi	a5,a5,1
    8000144e:	0007c703          	lbu	a4,0(a5)
    80001452:	ff6d                	bnez	a4,8000144c <printstr+0x12>
    80001454:	8f89                	sub	a5,a5,a0
    80001456:	04000713          	li	a4,64
    8000145a:	e298                	sd	a4,0(a3)
    8000145c:	4705                	li	a4,1
    8000145e:	e698                	sd	a4,8(a3)
    80001460:	ea88                	sd	a0,16(a3)
    80001462:	ee9c                	sd	a5,24(a3)
    80001464:	0ff0000f          	fence
    80001468:	00000717          	auipc	a4,0x0
    8000146c:	bd870713          	addi	a4,a4,-1064 # 80001040 <fromhost>
    80001470:	00000797          	auipc	a5,0x0
    80001474:	b8d7b823          	sd	a3,-1136(a5) # 80001000 <tohost>
    80001478:	631c                	ld	a5,0(a4)
    8000147a:	dffd                	beqz	a5,80001478 <printstr+0x3e>
    8000147c:	00000797          	auipc	a5,0x0
    80001480:	bc07b223          	sd	zero,-1084(a5) # 80001040 <fromhost>
    80001484:	0ff0000f          	fence
    80001488:	629c                	ld	a5,0(a3)
    8000148a:	6165                	addi	sp,sp,112
    8000148c:	8082                	ret
    8000148e:	4781                	li	a5,0
    80001490:	b7d9                	j	80001456 <printstr+0x1c>

0000000080001492 <thread_entry>:
    80001492:	c111                	beqz	a0,80001496 <thread_entry+0x4>
    80001494:	a001                	j	80001494 <thread_entry+0x2>
    80001496:	8082                	ret

0000000080001498 <printhex>:
    80001498:	7179                	addi	sp,sp,-48
    8000149a:	862a                	mv	a2,a0
    8000149c:	f406                	sd	ra,40(sp)
    8000149e:	0028                	addi	a0,sp,8
    800014a0:	01710693          	addi	a3,sp,23
    800014a4:	4825                	li	a6,9
    800014a6:	a011                	j	800014aa <printhex+0x12>
    800014a8:	86be                	mv	a3,a5
    800014aa:	00f67793          	andi	a5,a2,15
    800014ae:	03000593          	li	a1,48
    800014b2:	0ff7f713          	andi	a4,a5,255
    800014b6:	00f87463          	bleu	a5,a6,800014be <printhex+0x26>
    800014ba:	05700593          	li	a1,87
    800014be:	00b707bb          	addw	a5,a4,a1
    800014c2:	00f68023          	sb	a5,0(a3)
    800014c6:	8211                	srli	a2,a2,0x4
    800014c8:	fff68793          	addi	a5,a3,-1
    800014cc:	fcd51ee3          	bne	a0,a3,800014a8 <printhex+0x10>
    800014d0:	00010c23          	sb	zero,24(sp)
    800014d4:	f67ff0ef          	jal	ra,8000143a <printstr>
    800014d8:	70a2                	ld	ra,40(sp)
    800014da:	6145                	addi	sp,sp,48
    800014dc:	8082                	ret

00000000800014de <printf>:
    800014de:	711d                	addi	sp,sp,-96
    800014e0:	02810313          	addi	t1,sp,40
    800014e4:	f42e                	sd	a1,40(sp)
    800014e6:	f832                	sd	a2,48(sp)
    800014e8:	fc36                	sd	a3,56(sp)
    800014ea:	862a                	mv	a2,a0
    800014ec:	869a                	mv	a3,t1
    800014ee:	00000517          	auipc	a0,0x0
    800014f2:	e5050513          	addi	a0,a0,-432 # 8000133e <putchar>
    800014f6:	4581                	li	a1,0
    800014f8:	ec06                	sd	ra,24(sp)
    800014fa:	e0ba                	sd	a4,64(sp)
    800014fc:	e4be                	sd	a5,72(sp)
    800014fe:	e8c2                	sd	a6,80(sp)
    80001500:	ecc6                	sd	a7,88(sp)
    80001502:	e41a                	sd	t1,8(sp)
    80001504:	b45ff0ef          	jal	ra,80001048 <vprintfmt>
    80001508:	60e2                	ld	ra,24(sp)
    8000150a:	4501                	li	a0,0
    8000150c:	6125                	addi	sp,sp,96
    8000150e:	8082                	ret

0000000080001510 <debug_printf>:
    80001510:	3b30006f          	j	800020c2 <uart_sendstr>

0000000080001514 <sprintf>:
    80001514:	711d                	addi	sp,sp,-96
    80001516:	03010313          	addi	t1,sp,48
    8000151a:	f022                	sd	s0,32(sp)
    8000151c:	e42a                	sd	a0,8(sp)
    8000151e:	f832                	sd	a2,48(sp)
    80001520:	fc36                	sd	a3,56(sp)
    80001522:	842a                	mv	s0,a0
    80001524:	862e                	mv	a2,a1
    80001526:	00000517          	auipc	a0,0x0
    8000152a:	e0a50513          	addi	a0,a0,-502 # 80001330 <sprintf_putch.3222>
    8000152e:	002c                	addi	a1,sp,8
    80001530:	869a                	mv	a3,t1
    80001532:	f406                	sd	ra,40(sp)
    80001534:	e4be                	sd	a5,72(sp)
    80001536:	e0ba                	sd	a4,64(sp)
    80001538:	e8c2                	sd	a6,80(sp)
    8000153a:	ecc6                	sd	a7,88(sp)
    8000153c:	ec1a                	sd	t1,24(sp)
    8000153e:	b0bff0ef          	jal	ra,80001048 <vprintfmt>
    80001542:	67a2                	ld	a5,8(sp)
    80001544:	00078023          	sb	zero,0(a5)
    80001548:	6522                	ld	a0,8(sp)
    8000154a:	70a2                	ld	ra,40(sp)
    8000154c:	9d01                	subw	a0,a0,s0
    8000154e:	7402                	ld	s0,32(sp)
    80001550:	6125                	addi	sp,sp,96
    80001552:	8082                	ret

0000000080001554 <memcpy>:
    80001554:	00c5e7b3          	or	a5,a1,a2
    80001558:	8fc9                	or	a5,a5,a0
    8000155a:	8b9d                	andi	a5,a5,7
    8000155c:	00c506b3          	add	a3,a0,a2
    80001560:	cf91                	beqz	a5,8000157c <memcpy+0x28>
    80001562:	962e                	add	a2,a2,a1
    80001564:	87aa                	mv	a5,a0
    80001566:	02d57763          	bleu	a3,a0,80001594 <memcpy+0x40>
    8000156a:	0585                	addi	a1,a1,1
    8000156c:	fff5c703          	lbu	a4,-1(a1)
    80001570:	0785                	addi	a5,a5,1
    80001572:	fee78fa3          	sb	a4,-1(a5)
    80001576:	feb61ae3          	bne	a2,a1,8000156a <memcpy+0x16>
    8000157a:	8082                	ret
    8000157c:	fed57fe3          	bleu	a3,a0,8000157a <memcpy+0x26>
    80001580:	87aa                	mv	a5,a0
    80001582:	05a1                	addi	a1,a1,8
    80001584:	ff85b703          	ld	a4,-8(a1)
    80001588:	07a1                	addi	a5,a5,8
    8000158a:	fee7bc23          	sd	a4,-8(a5)
    8000158e:	fed7eae3          	bltu	a5,a3,80001582 <memcpy+0x2e>
    80001592:	8082                	ret
    80001594:	8082                	ret

0000000080001596 <memset>:
    80001596:	00c567b3          	or	a5,a0,a2
    8000159a:	8b9d                	andi	a5,a5,7
    8000159c:	962a                	add	a2,a2,a0
    8000159e:	0ff5f593          	andi	a1,a1,255
    800015a2:	cb91                	beqz	a5,800015b6 <memset+0x20>
    800015a4:	87aa                	mv	a5,a0
    800015a6:	02c57a63          	bleu	a2,a0,800015da <memset+0x44>
    800015aa:	0785                	addi	a5,a5,1
    800015ac:	feb78fa3          	sb	a1,-1(a5)
    800015b0:	fef61de3          	bne	a2,a5,800015aa <memset+0x14>
    800015b4:	8082                	ret
    800015b6:	00859713          	slli	a4,a1,0x8
    800015ba:	8f4d                	or	a4,a4,a1
    800015bc:	01071593          	slli	a1,a4,0x10
    800015c0:	8f4d                	or	a4,a4,a1
    800015c2:	02071793          	slli	a5,a4,0x20
    800015c6:	8f5d                	or	a4,a4,a5
    800015c8:	fec576e3          	bleu	a2,a0,800015b4 <memset+0x1e>
    800015cc:	87aa                	mv	a5,a0
    800015ce:	07a1                	addi	a5,a5,8
    800015d0:	fee7bc23          	sd	a4,-8(a5)
    800015d4:	fec7ede3          	bltu	a5,a2,800015ce <memset+0x38>
    800015d8:	8082                	ret
    800015da:	8082                	ret

00000000800015dc <_init>:
    800015dc:	7171                	addi	sp,sp,-176
    800015de:	f122                	sd	s0,160(sp)
    800015e0:	ed26                	sd	s1,152(sp)
    800015e2:	00020493          	mv	s1,tp
    800015e6:	00020413          	mv	s0,tp
    800015ea:	40848433          	sub	s0,s1,s0
    800015ee:	8622                	mv	a2,s0
    800015f0:	e54e                	sd	s3,136(sp)
    800015f2:	e152                	sd	s4,128(sp)
    800015f4:	89aa                	mv	s3,a0
    800015f6:	8a2e                	mv	s4,a1
    800015f8:	8512                	mv	a0,tp
    800015fa:	c4818593          	addi	a1,gp,-952 # 80002980 <_end>
    800015fe:	f506                	sd	ra,168(sp)
    80001600:	e94a                	sd	s2,144(sp)
    80001602:	fcd6                	sd	s5,120(sp)
    80001604:	8a92                	mv	s5,tp
    80001606:	f4fff0ef          	jal	ra,80001554 <memcpy>
    8000160a:	04420613          	addi	a2,tp,68 # 44 <_tbss_end>
    8000160e:	8e05                	sub	a2,a2,s1
    80001610:	4581                	li	a1,0
    80001612:	008a8533          	add	a0,s5,s0
    80001616:	f81ff0ef          	jal	ra,80001596 <memset>
    8000161a:	854e                	mv	a0,s3
    8000161c:	85d2                	mv	a1,s4
    8000161e:	e75ff0ef          	jal	ra,80001492 <thread_entry>
    80001622:	4581                	li	a1,0
    80001624:	4501                	li	a0,0
    80001626:	51b000ef          	jal	ra,80002340 <main>
    8000162a:	00001417          	auipc	s0,0x1
    8000162e:	f0e40413          	addi	s0,s0,-242 # 80002538 <counters>
    80001632:	6014                	ld	a3,0(s0)
    80001634:	03f10913          	addi	s2,sp,63
    80001638:	fc097913          	andi	s2,s2,-64
    8000163c:	89aa                	mv	s3,a0
    8000163e:	e695                	bnez	a3,8000166a <_init+0x8e>
    80001640:	6414                	ld	a3,8(s0)
    80001642:	e681                	bnez	a3,8000164a <_init+0x6e>
    80001644:	854e                	mv	a0,s3
    80001646:	dbdff0ef          	jal	ra,80001402 <tohost_exit>
    8000164a:	84ca                	mv	s1,s2
    8000164c:	6c10                	ld	a2,24(s0)
    8000164e:	8526                	mv	a0,s1
    80001650:	00001597          	auipc	a1,0x1
    80001654:	d7058593          	addi	a1,a1,-656 # 800023c0 <main+0x80>
    80001658:	ebdff0ef          	jal	ra,80001514 <sprintf>
    8000165c:	94aa                	add	s1,s1,a0
    8000165e:	fe9903e3          	beq	s2,s1,80001644 <_init+0x68>
    80001662:	854a                	mv	a0,s2
    80001664:	dd7ff0ef          	jal	ra,8000143a <printstr>
    80001668:	bff1                	j	80001644 <_init+0x68>
    8000166a:	6810                	ld	a2,16(s0)
    8000166c:	00001597          	auipc	a1,0x1
    80001670:	d5458593          	addi	a1,a1,-684 # 800023c0 <main+0x80>
    80001674:	854a                	mv	a0,s2
    80001676:	e9fff0ef          	jal	ra,80001514 <sprintf>
    8000167a:	6414                	ld	a3,8(s0)
    8000167c:	00a904b3          	add	s1,s2,a0
    80001680:	def9                	beqz	a3,8000165e <_init+0x82>
    80001682:	b7e9                	j	8000164c <_init+0x70>

0000000080001684 <strlen>:
    80001684:	00054783          	lbu	a5,0(a0)
    80001688:	cb89                	beqz	a5,8000169a <strlen+0x16>
    8000168a:	87aa                	mv	a5,a0
    8000168c:	0785                	addi	a5,a5,1
    8000168e:	0007c703          	lbu	a4,0(a5)
    80001692:	ff6d                	bnez	a4,8000168c <strlen+0x8>
    80001694:	40a78533          	sub	a0,a5,a0
    80001698:	8082                	ret
    8000169a:	4501                	li	a0,0
    8000169c:	8082                	ret

000000008000169e <strnlen>:
    8000169e:	cd91                	beqz	a1,800016ba <strnlen+0x1c>
    800016a0:	00054783          	lbu	a5,0(a0)
    800016a4:	c38d                	beqz	a5,800016c6 <strnlen+0x28>
    800016a6:	00b506b3          	add	a3,a0,a1
    800016aa:	87aa                	mv	a5,a0
    800016ac:	a021                	j	800016b4 <strnlen+0x16>
    800016ae:	0007c703          	lbu	a4,0(a5)
    800016b2:	c711                	beqz	a4,800016be <strnlen+0x20>
    800016b4:	0785                	addi	a5,a5,1
    800016b6:	fed79ce3          	bne	a5,a3,800016ae <strnlen+0x10>
    800016ba:	852e                	mv	a0,a1
    800016bc:	8082                	ret
    800016be:	40a785b3          	sub	a1,a5,a0
    800016c2:	852e                	mv	a0,a1
    800016c4:	8082                	ret
    800016c6:	4581                	li	a1,0
    800016c8:	bfcd                	j	800016ba <strnlen+0x1c>

00000000800016ca <strcmp>:
    800016ca:	0505                	addi	a0,a0,1
    800016cc:	fff54783          	lbu	a5,-1(a0)
    800016d0:	0585                	addi	a1,a1,1
    800016d2:	fff5c703          	lbu	a4,-1(a1)
    800016d6:	c799                	beqz	a5,800016e4 <strcmp+0x1a>
    800016d8:	fee789e3          	beq	a5,a4,800016ca <strcmp>
    800016dc:	0007851b          	sext.w	a0,a5
    800016e0:	9d19                	subw	a0,a0,a4
    800016e2:	8082                	ret
    800016e4:	4501                	li	a0,0
    800016e6:	bfed                	j	800016e0 <strcmp+0x16>

00000000800016e8 <strcpy>:
    800016e8:	87aa                	mv	a5,a0
    800016ea:	0585                	addi	a1,a1,1
    800016ec:	fff5c703          	lbu	a4,-1(a1)
    800016f0:	0785                	addi	a5,a5,1
    800016f2:	fee78fa3          	sb	a4,-1(a5)
    800016f6:	fb75                	bnez	a4,800016ea <strcpy+0x2>
    800016f8:	8082                	ret

00000000800016fa <atol>:
    800016fa:	00054783          	lbu	a5,0(a0)
    800016fe:	02000713          	li	a4,32
    80001702:	00e79763          	bne	a5,a4,80001710 <atol+0x16>
    80001706:	0505                	addi	a0,a0,1
    80001708:	00054783          	lbu	a5,0(a0)
    8000170c:	fee78de3          	beq	a5,a4,80001706 <atol+0xc>
    80001710:	fd57871b          	addiw	a4,a5,-43
    80001714:	0fd77713          	andi	a4,a4,253
    80001718:	c715                	beqz	a4,80001744 <atol+0x4a>
    8000171a:	00054683          	lbu	a3,0(a0)
    8000171e:	87aa                	mv	a5,a0
    80001720:	4601                	li	a2,0
    80001722:	ce85                	beqz	a3,8000175a <atol+0x60>
    80001724:	4501                	li	a0,0
    80001726:	0785                	addi	a5,a5,1
    80001728:	fd06859b          	addiw	a1,a3,-48
    8000172c:	00251713          	slli	a4,a0,0x2
    80001730:	0007c683          	lbu	a3,0(a5)
    80001734:	953a                	add	a0,a0,a4
    80001736:	0506                	slli	a0,a0,0x1
    80001738:	952e                	add	a0,a0,a1
    8000173a:	f6f5                	bnez	a3,80001726 <atol+0x2c>
    8000173c:	c219                	beqz	a2,80001742 <atol+0x48>
    8000173e:	40a00533          	neg	a0,a0
    80001742:	8082                	ret
    80001744:	00154683          	lbu	a3,1(a0)
    80001748:	fd378793          	addi	a5,a5,-45
    8000174c:	0017b613          	seqz	a2,a5
    80001750:	00150793          	addi	a5,a0,1
    80001754:	fae1                	bnez	a3,80001724 <atol+0x2a>
    80001756:	4501                	li	a0,0
    80001758:	b7d5                	j	8000173c <atol+0x42>
    8000175a:	4501                	li	a0,0
    8000175c:	8082                	ret

000000008000175e <qprints.constprop.2>:
    8000175e:	7179                	addi	sp,sp,-48
    80001760:	f022                	sd	s0,32(sp)
    80001762:	e84a                	sd	s2,16(sp)
    80001764:	f406                	sd	ra,40(sp)
    80001766:	ec26                	sd	s1,24(sp)
    80001768:	e44e                	sd	s3,8(sp)
    8000176a:	e052                	sd	s4,0(sp)
    8000176c:	842a                	mv	s0,a0
    8000176e:	892e                	mv	s2,a1
    80001770:	00054503          	lbu	a0,0(a0)
    80001774:	08b05c63          	blez	a1,8000180c <qprints.constprop.2+0xae>
    80001778:	c94d                	beqz	a0,8000182a <qprints.constprop.2+0xcc>
    8000177a:	4685                	li	a3,1
    8000177c:	87a2                	mv	a5,s0
    8000177e:	9e81                	subw	a3,a3,s0
    80001780:	00f684bb          	addw	s1,a3,a5
    80001784:	0785                	addi	a5,a5,1
    80001786:	0007c703          	lbu	a4,0(a5)
    8000178a:	fb7d                	bnez	a4,80001780 <qprints.constprop.2+0x22>
    8000178c:	0124cb63          	blt	s1,s2,800017a2 <qprints.constprop.2+0x44>
    80001790:	00267493          	andi	s1,a2,2
    80001794:	2481                	sext.w	s1,s1
    80001796:	c0d1                	beqz	s1,8000181a <qprints.constprop.2+0xbc>
    80001798:	03000993          	li	s3,48
    8000179c:	4901                	li	s2,0
    8000179e:	4481                	li	s1,0
    800017a0:	a035                	j	800017cc <qprints.constprop.2+0x6e>
    800017a2:	409904bb          	subw	s1,s2,s1
    800017a6:	00267793          	andi	a5,a2,2
    800017aa:	03000993          	li	s3,48
    800017ae:	c3bd                	beqz	a5,80001814 <qprints.constprop.2+0xb6>
    800017b0:	8a05                	andi	a2,a2,1
    800017b2:	0ff9fa13          	andi	s4,s3,255
    800017b6:	8926                	mv	s2,s1
    800017b8:	e62d                	bnez	a2,80001822 <qprints.constprop.2+0xc4>
    800017ba:	397d                	addiw	s2,s2,-1
    800017bc:	8552                	mv	a0,s4
    800017be:	137000ef          	jal	ra,800020f4 <uart_sendchar>
    800017c2:	fe091ce3          	bnez	s2,800017ba <qprints.constprop.2+0x5c>
    800017c6:	00044503          	lbu	a0,0(s0)
    800017ca:	c905                	beqz	a0,800017fa <qprints.constprop.2+0x9c>
    800017cc:	9c81                	subw	s1,s1,s0
    800017ce:	00148a1b          	addiw	s4,s1,1
    800017d2:	008a04bb          	addw	s1,s4,s0
    800017d6:	11f000ef          	jal	ra,800020f4 <uart_sendchar>
    800017da:	0405                	addi	s0,s0,1
    800017dc:	00044503          	lbu	a0,0(s0)
    800017e0:	f96d                	bnez	a0,800017d2 <qprints.constprop.2+0x74>
    800017e2:	01205c63          	blez	s2,800017fa <qprints.constprop.2+0x9c>
    800017e6:	0ff9f993          	andi	s3,s3,255
    800017ea:	844a                	mv	s0,s2
    800017ec:	347d                	addiw	s0,s0,-1
    800017ee:	854e                	mv	a0,s3
    800017f0:	105000ef          	jal	ra,800020f4 <uart_sendchar>
    800017f4:	fc65                	bnez	s0,800017ec <qprints.constprop.2+0x8e>
    800017f6:	012484bb          	addw	s1,s1,s2
    800017fa:	70a2                	ld	ra,40(sp)
    800017fc:	7402                	ld	s0,32(sp)
    800017fe:	8526                	mv	a0,s1
    80001800:	6942                	ld	s2,16(sp)
    80001802:	64e2                	ld	s1,24(sp)
    80001804:	69a2                	ld	s3,8(sp)
    80001806:	6a02                	ld	s4,0(sp)
    80001808:	6145                	addi	sp,sp,48
    8000180a:	8082                	ret
    8000180c:	02000993          	li	s3,32
    80001810:	4481                	li	s1,0
    80001812:	bf65                	j	800017ca <qprints.constprop.2+0x6c>
    80001814:	02000993          	li	s3,32
    80001818:	bf61                	j	800017b0 <qprints.constprop.2+0x52>
    8000181a:	4901                	li	s2,0
    8000181c:	02000993          	li	s3,32
    80001820:	b775                	j	800017cc <qprints.constprop.2+0x6e>
    80001822:	c511                	beqz	a0,8000182e <qprints.constprop.2+0xd0>
    80001824:	8926                	mv	s2,s1
    80001826:	4481                	li	s1,0
    80001828:	b755                	j	800017cc <qprints.constprop.2+0x6e>
    8000182a:	84ae                	mv	s1,a1
    8000182c:	bfad                	j	800017a6 <qprints.constprop.2+0x48>
    8000182e:	4481                	li	s1,0
    80001830:	bf5d                	j	800017e6 <qprints.constprop.2+0x88>

0000000080001832 <qprinti.constprop.1>:
    80001832:	715d                	addi	sp,sp,-80
    80001834:	e486                	sd	ra,72(sp)
    80001836:	e0a2                	sd	s0,64(sp)
    80001838:	fc26                	sd	s1,56(sp)
    8000183a:	10050263          	beqz	a0,8000193e <qprinti.constprop.1+0x10c>
    8000183e:	8432                	mv	s0,a2
    80001840:	0005081b          	sext.w	a6,a0
    80001844:	c601                	beqz	a2,8000184c <qprinti.constprop.1+0x1a>
    80001846:	4629                	li	a2,10
    80001848:	10c58963          	beq	a1,a2,8000195a <qprinti.constprop.1+0x128>
    8000184c:	020107a3          	sb	zero,47(sp)
    80001850:	4641                	li	a2,16
    80001852:	4401                	li	s0,0
    80001854:	0ac58063          	beq	a1,a2,800018f4 <qprinti.constprop.1+0xc2>
    80001858:	1999aeb7          	lui	t4,0x1999a
    8000185c:	02f10e13          	addi	t3,sp,47
    80001860:	00001f17          	auipc	t5,0x1
    80001864:	cc8f0f13          	addi	t5,t5,-824 # 80002528 <remu10_table>
    80001868:	999e8e9b          	addiw	t4,t4,-1639
    8000186c:	a011                	j	80001870 <qprinti.constprop.1+0x3e>
    8000186e:	8e26                	mv	t3,s1
    80001870:	03d808bb          	mulw	a7,a6,t4
    80001874:	0018561b          	srliw	a2,a6,0x1
    80001878:	0028579b          	srliw	a5,a6,0x2
    8000187c:	9fb1                	addw	a5,a5,a2
    8000187e:	0047d59b          	srliw	a1,a5,0x4
    80001882:	9fad                	addw	a5,a5,a1
    80001884:	0087d59b          	srliw	a1,a5,0x8
    80001888:	9fad                	addw	a5,a5,a1
    8000188a:	0038551b          	srliw	a0,a6,0x3
    8000188e:	0107d59b          	srliw	a1,a5,0x10
    80001892:	00c888bb          	addw	a7,a7,a2
    80001896:	00a888bb          	addw	a7,a7,a0
    8000189a:	9fad                	addw	a5,a5,a1
    8000189c:	0037d79b          	srliw	a5,a5,0x3
    800018a0:	01c8d89b          	srliw	a7,a7,0x1c
    800018a4:	98fa                	add	a7,a7,t5
    800018a6:	0027931b          	slliw	t1,a5,0x2
    800018aa:	0008c503          	lbu	a0,0(a7)
    800018ae:	00f308bb          	addw	a7,t1,a5
    800018b2:	2819                	addiw	a6,a6,6
    800018b4:	0018989b          	slliw	a7,a7,0x1
    800018b8:	4118083b          	subw	a6,a6,a7
    800018bc:	0305051b          	addiw	a0,a0,48
    800018c0:	0048581b          	srliw	a6,a6,0x4
    800018c4:	feae0fa3          	sb	a0,-1(t3)
    800018c8:	00f8083b          	addw	a6,a6,a5
    800018cc:	fffe0493          	addi	s1,t3,-1
    800018d0:	f8081fe3          	bnez	a6,8000186e <qprinti.constprop.1+0x3c>
    800018d4:	c849                	beqz	s0,80001966 <qprinti.constprop.1+0x134>
    800018d6:	cea9                	beqz	a3,80001930 <qprinti.constprop.1+0xfe>
    800018d8:	00277793          	andi	a5,a4,2
    800018dc:	cbb1                	beqz	a5,80001930 <qprinti.constprop.1+0xfe>
    800018de:	02d00513          	li	a0,45
    800018e2:	e43a                	sd	a4,8(sp)
    800018e4:	e036                	sd	a3,0(sp)
    800018e6:	00f000ef          	jal	ra,800020f4 <uart_sendchar>
    800018ea:	6682                	ld	a3,0(sp)
    800018ec:	8526                	mv	a0,s1
    800018ee:	6722                	ld	a4,8(sp)
    800018f0:	36fd                	addiw	a3,a3,-1
    800018f2:	a02d                	j	8000191c <qprinti.constprop.1+0xea>
    800018f4:	02f10513          	addi	a0,sp,47
    800018f8:	45a5                	li	a1,9
    800018fa:	fc67879b          	addiw	a5,a5,-58
    800018fe:	00f87613          	andi	a2,a6,15
    80001902:	157d                	addi	a0,a0,-1
    80001904:	0048581b          	srliw	a6,a6,0x4
    80001908:	00c5d363          	ble	a2,a1,8000190e <qprinti.constprop.1+0xdc>
    8000190c:	9e3d                	addw	a2,a2,a5
    8000190e:	0306061b          	addiw	a2,a2,48
    80001912:	00c50023          	sb	a2,0(a0)
    80001916:	fe0814e3          	bnez	a6,800018fe <qprinti.constprop.1+0xcc>
    8000191a:	4401                	li	s0,0
    8000191c:	863a                	mv	a2,a4
    8000191e:	85b6                	mv	a1,a3
    80001920:	e3fff0ef          	jal	ra,8000175e <qprints.constprop.2>
    80001924:	9d21                	addw	a0,a0,s0
    80001926:	60a6                	ld	ra,72(sp)
    80001928:	6406                	ld	s0,64(sp)
    8000192a:	74e2                	ld	s1,56(sp)
    8000192c:	6161                	addi	sp,sp,80
    8000192e:	8082                	ret
    80001930:	02d00793          	li	a5,45
    80001934:	ffee0513          	addi	a0,t3,-2
    80001938:	fef48fa3          	sb	a5,-1(s1)
    8000193c:	bff9                	j	8000191a <qprinti.constprop.1+0xe8>
    8000193e:	0808                	addi	a0,sp,16
    80001940:	03000793          	li	a5,48
    80001944:	863a                	mv	a2,a4
    80001946:	85b6                	mv	a1,a3
    80001948:	00f11823          	sh	a5,16(sp)
    8000194c:	e13ff0ef          	jal	ra,8000175e <qprints.constprop.2>
    80001950:	60a6                	ld	ra,72(sp)
    80001952:	6406                	ld	s0,64(sp)
    80001954:	74e2                	ld	s1,56(sp)
    80001956:	6161                	addi	sp,sp,80
    80001958:	8082                	ret
    8000195a:	00054863          	bltz	a0,8000196a <qprinti.constprop.1+0x138>
    8000195e:	020107a3          	sb	zero,47(sp)
    80001962:	4401                	li	s0,0
    80001964:	bdd5                	j	80001858 <qprinti.constprop.1+0x26>
    80001966:	8526                	mv	a0,s1
    80001968:	bf55                	j	8000191c <qprinti.constprop.1+0xea>
    8000196a:	40a0083b          	negw	a6,a0
    8000196e:	020107a3          	sb	zero,47(sp)
    80001972:	b5dd                	j	80001858 <qprinti.constprop.1+0x26>

0000000080001974 <qputchar>:
    80001974:	1141                	addi	sp,sp,-16
    80001976:	e022                	sd	s0,0(sp)
    80001978:	842a                	mv	s0,a0
    8000197a:	0ff57513          	andi	a0,a0,255
    8000197e:	e406                	sd	ra,8(sp)
    80001980:	774000ef          	jal	ra,800020f4 <uart_sendchar>
    80001984:	8522                	mv	a0,s0
    80001986:	60a2                	ld	ra,8(sp)
    80001988:	6402                	ld	s0,0(sp)
    8000198a:	0141                	addi	sp,sp,16
    8000198c:	8082                	ret

000000008000198e <qprintf>:
    8000198e:	7171                	addi	sp,sp,-176
    80001990:	e8ca                	sd	s2,80(sp)
    80001992:	f486                	sd	ra,104(sp)
    80001994:	f0a2                	sd	s0,96(sp)
    80001996:	eca6                	sd	s1,88(sp)
    80001998:	e4ce                	sd	s3,72(sp)
    8000199a:	e0d2                	sd	s4,64(sp)
    8000199c:	fc56                	sd	s5,56(sp)
    8000199e:	f85a                	sd	s6,48(sp)
    800019a0:	f45e                	sd	s7,40(sp)
    800019a2:	f062                	sd	s8,32(sp)
    800019a4:	ec66                	sd	s9,24(sp)
    800019a6:	fcae                	sd	a1,120(sp)
    800019a8:	e132                	sd	a2,128(sp)
    800019aa:	e536                	sd	a3,136(sp)
    800019ac:	e93a                	sd	a4,144(sp)
    800019ae:	ed3e                	sd	a5,152(sp)
    800019b0:	f142                	sd	a6,160(sp)
    800019b2:	f546                	sd	a7,168(sp)
    800019b4:	00054783          	lbu	a5,0(a0)
    800019b8:	07810913          	addi	s2,sp,120
    800019bc:	e44a                	sd	s2,8(sp)
    800019be:	18078663          	beqz	a5,80001b4a <qprintf+0x1bc>
    800019c2:	84aa                	mv	s1,a0
    800019c4:	4981                	li	s3,0
    800019c6:	02500a13          	li	s4,37
    800019ca:	02d00c13          	li	s8,45
    800019ce:	03000b13          	li	s6,48
    800019d2:	4aa5                	li	s5,9
    800019d4:	07300b93          	li	s7,115
    800019d8:	00001c97          	auipc	s9,0x1
    800019dc:	9b0c8c93          	addi	s9,s9,-1616 # 80002388 <main+0x48>
    800019e0:	a821                	j	800019f8 <qprintf+0x6a>
    800019e2:	87a2                	mv	a5,s0
    800019e4:	0004c503          	lbu	a0,0(s1)
    800019e8:	8426                	mv	s0,s1
    800019ea:	84be                	mv	s1,a5
    800019ec:	708000ef          	jal	ra,800020f4 <uart_sendchar>
    800019f0:	2985                	addiw	s3,s3,1
    800019f2:	00144783          	lbu	a5,1(s0)
    800019f6:	cbd1                	beqz	a5,80001a8a <qprintf+0xfc>
    800019f8:	00148413          	addi	s0,s1,1
    800019fc:	ff4793e3          	bne	a5,s4,800019e2 <qprintf+0x54>
    80001a00:	0014c503          	lbu	a0,1(s1)
    80001a04:	c159                	beqz	a0,80001a8a <qprintf+0xfc>
    80001a06:	0b450663          	beq	a0,s4,80001ab2 <qprintf+0x124>
    80001a0a:	4701                	li	a4,0
    80001a0c:	09850d63          	beq	a0,s8,80001aa6 <qprintf+0x118>
    80001a10:	01651963          	bne	a0,s6,80001a22 <qprintf+0x94>
    80001a14:	0405                	addi	s0,s0,1
    80001a16:	00044503          	lbu	a0,0(s0)
    80001a1a:	00276713          	ori	a4,a4,2
    80001a1e:	ff650be3          	beq	a0,s6,80001a14 <qprintf+0x86>
    80001a22:	fd05061b          	addiw	a2,a0,-48
    80001a26:	0ff67793          	andi	a5,a2,255
    80001a2a:	4681                	li	a3,0
    80001a2c:	02fae163          	bltu	s5,a5,80001a4e <qprintf+0xc0>
    80001a30:	0405                	addi	s0,s0,1
    80001a32:	0026979b          	slliw	a5,a3,0x2
    80001a36:	00044503          	lbu	a0,0(s0)
    80001a3a:	9ebd                	addw	a3,a3,a5
    80001a3c:	0016969b          	slliw	a3,a3,0x1
    80001a40:	9eb1                	addw	a3,a3,a2
    80001a42:	fd05061b          	addiw	a2,a0,-48
    80001a46:	0ff67793          	andi	a5,a2,255
    80001a4a:	fefaf3e3          	bleu	a5,s5,80001a30 <qprintf+0xa2>
    80001a4e:	07750763          	beq	a0,s7,80001abc <qprintf+0x12e>
    80001a52:	06400793          	li	a5,100
    80001a56:	08f50063          	beq	a0,a5,80001ad6 <qprintf+0x148>
    80001a5a:	07500793          	li	a5,117
    80001a5e:	08f50a63          	beq	a0,a5,80001af2 <qprintf+0x164>
    80001a62:	07800793          	li	a5,120
    80001a66:	08f50c63          	beq	a0,a5,80001afe <qprintf+0x170>
    80001a6a:	05800793          	li	a5,88
    80001a6e:	0af50663          	beq	a0,a5,80001b1a <qprintf+0x18c>
    80001a72:	06300793          	li	a5,99
    80001a76:	0af50963          	beq	a0,a5,80001b28 <qprintf+0x19a>
    80001a7a:	c901                	beqz	a0,80001a8a <qprintf+0xfc>
    80001a7c:	03450d63          	beq	a0,s4,80001ab6 <qprintf+0x128>
    80001a80:	00140493          	addi	s1,s0,1
    80001a84:	00144783          	lbu	a5,1(s0)
    80001a88:	fba5                	bnez	a5,800019f8 <qprintf+0x6a>
    80001a8a:	70a6                	ld	ra,104(sp)
    80001a8c:	7406                	ld	s0,96(sp)
    80001a8e:	854e                	mv	a0,s3
    80001a90:	64e6                	ld	s1,88(sp)
    80001a92:	6946                	ld	s2,80(sp)
    80001a94:	69a6                	ld	s3,72(sp)
    80001a96:	6a06                	ld	s4,64(sp)
    80001a98:	7ae2                	ld	s5,56(sp)
    80001a9a:	7b42                	ld	s6,48(sp)
    80001a9c:	7ba2                	ld	s7,40(sp)
    80001a9e:	7c02                	ld	s8,32(sp)
    80001aa0:	6ce2                	ld	s9,24(sp)
    80001aa2:	614d                	addi	sp,sp,176
    80001aa4:	8082                	ret
    80001aa6:	0024c503          	lbu	a0,2(s1)
    80001aaa:	00248413          	addi	s0,s1,2
    80001aae:	4705                	li	a4,1
    80001ab0:	b785                	j	80001a10 <qprintf+0x82>
    80001ab2:	0489                	addi	s1,s1,2
    80001ab4:	bf25                	j	800019ec <qprintf+0x5e>
    80001ab6:	84a2                	mv	s1,s0
    80001ab8:	147d                	addi	s0,s0,-1
    80001aba:	bf25                	j	800019f2 <qprintf+0x64>
    80001abc:	00093503          	ld	a0,0(s2)
    80001ac0:	0921                	addi	s2,s2,8
    80001ac2:	c12d                	beqz	a0,80001b24 <qprintf+0x196>
    80001ac4:	863a                	mv	a2,a4
    80001ac6:	85b6                	mv	a1,a3
    80001ac8:	c97ff0ef          	jal	ra,8000175e <qprints.constprop.2>
    80001acc:	013509bb          	addw	s3,a0,s3
    80001ad0:	00140493          	addi	s1,s0,1
    80001ad4:	bf39                	j	800019f2 <qprintf+0x64>
    80001ad6:	00092503          	lw	a0,0(s2)
    80001ada:	06100793          	li	a5,97
    80001ade:	4605                	li	a2,1
    80001ae0:	45a9                	li	a1,10
    80001ae2:	d51ff0ef          	jal	ra,80001832 <qprinti.constprop.1>
    80001ae6:	0921                	addi	s2,s2,8
    80001ae8:	013509bb          	addw	s3,a0,s3
    80001aec:	00140493          	addi	s1,s0,1
    80001af0:	bf51                	j	80001a84 <qprintf+0xf6>
    80001af2:	00092503          	lw	a0,0(s2)
    80001af6:	06100793          	li	a5,97
    80001afa:	4601                	li	a2,0
    80001afc:	b7d5                	j	80001ae0 <qprintf+0x152>
    80001afe:	00092503          	lw	a0,0(s2)
    80001b02:	06100793          	li	a5,97
    80001b06:	4601                	li	a2,0
    80001b08:	45c1                	li	a1,16
    80001b0a:	d29ff0ef          	jal	ra,80001832 <qprinti.constprop.1>
    80001b0e:	0921                	addi	s2,s2,8
    80001b10:	013509bb          	addw	s3,a0,s3
    80001b14:	00140493          	addi	s1,s0,1
    80001b18:	bde9                	j	800019f2 <qprintf+0x64>
    80001b1a:	00092503          	lw	a0,0(s2)
    80001b1e:	04100793          	li	a5,65
    80001b22:	b7d5                	j	80001b06 <qprintf+0x178>
    80001b24:	8566                	mv	a0,s9
    80001b26:	bf79                	j	80001ac4 <qprintf+0x136>
    80001b28:	00092783          	lw	a5,0(s2)
    80001b2c:	863a                	mv	a2,a4
    80001b2e:	85b6                	mv	a1,a3
    80001b30:	850a                	mv	a0,sp
    80001b32:	00f10023          	sb	a5,0(sp)
    80001b36:	000100a3          	sb	zero,1(sp)
    80001b3a:	c25ff0ef          	jal	ra,8000175e <qprints.constprop.2>
    80001b3e:	0921                	addi	s2,s2,8
    80001b40:	013509bb          	addw	s3,a0,s3
    80001b44:	00140493          	addi	s1,s0,1
    80001b48:	b56d                	j	800019f2 <qprintf+0x64>
    80001b4a:	4981                	li	s3,0
    80001b4c:	bf3d                	j	80001a8a <qprintf+0xfc>

0000000080001b4e <uart_set_cfg>:
    80001b4e:	100007b7          	lui	a5,0x10000
    80001b52:	08300713          	li	a4,131
    80001b56:	c7d8                	sw	a4,12(a5)
    80001b58:	0085d713          	srli	a4,a1,0x8
    80001b5c:	c3d8                	sw	a4,4(a5)
    80001b5e:	0ff5f593          	andi	a1,a1,255
    80001b62:	c38c                	sw	a1,0(a5)
    80001b64:	0a700713          	li	a4,167
    80001b68:	c798                	sw	a4,8(a5)
    80001b6a:	470d                	li	a4,3
    80001b6c:	c7d8                	sw	a4,12(a5)
    80001b6e:	43d8                	lw	a4,4(a5)
    80001b70:	0f077713          	andi	a4,a4,240
    80001b74:	00276713          	ori	a4,a4,2
    80001b78:	c3d8                	sw	a4,4(a5)
    80001b7a:	8082                	ret

0000000080001b7c <uart_set_cfg_without_fifo>:
    80001b7c:	100007b7          	lui	a5,0x10000
    80001b80:	08300713          	li	a4,131
    80001b84:	c7d8                	sw	a4,12(a5)
    80001b86:	0085d713          	srli	a4,a1,0x8
    80001b8a:	c3d8                	sw	a4,4(a5)
    80001b8c:	0ff5f593          	andi	a1,a1,255
    80001b90:	c38c                	sw	a1,0(a5)
    80001b92:	0007a423          	sw	zero,8(a5) # 10000008 <_tbss_end+0xfffffc4>
    80001b96:	470d                	li	a4,3
    80001b98:	c7d8                	sw	a4,12(a5)
    80001b9a:	0007a223          	sw	zero,4(a5)
    80001b9e:	8082                	ret

0000000080001ba0 <uart_set_cfg_int>:
    80001ba0:	c2c1d783          	lhu	a5,-980(gp) # 80002964 <uart+0x40c>
    80001ba4:	0087d69b          	srliw	a3,a5,0x8
    80001ba8:	10000737          	lui	a4,0x10000
    80001bac:	08300613          	li	a2,131
    80001bb0:	0106969b          	slliw	a3,a3,0x10
    80001bb4:	c750                	sw	a2,12(a4)
    80001bb6:	0106d69b          	srliw	a3,a3,0x10
    80001bba:	c354                	sw	a3,4(a4)
    80001bbc:	0ff7f693          	andi	a3,a5,255
    80001bc0:	00001797          	auipc	a5,0x1
    80001bc4:	99878793          	addi	a5,a5,-1640 # 80002558 <uart>
    80001bc8:	40c7a783          	lw	a5,1036(a5)
    80001bcc:	c314                	sw	a3,0(a4)
    80001bce:	0a700693          	li	a3,167
    80001bd2:	c714                	sw	a3,8(a4)
    80001bd4:	00060637          	lui	a2,0x60
    80001bd8:	c2e1c683          	lbu	a3,-978(gp) # 80002966 <uart+0x40e>
    80001bdc:	8ff1                	and	a5,a5,a2
    80001bde:	460d                	li	a2,3
    80001be0:	c750                	sw	a2,12(a4)
    80001be2:	0016f713          	andi	a4,a3,1
    80001be6:	00f037b3          	snez	a5,a5
    80001bea:	c319                	beqz	a4,80001bf0 <uart_set_cfg_int+0x50>
    80001bec:	0047e793          	ori	a5,a5,4
    80001bf0:	8ac1                	andi	a3,a3,16
    80001bf2:	c299                	beqz	a3,80001bf8 <uart_set_cfg_int+0x58>
    80001bf4:	0087e793          	ori	a5,a5,8
    80001bf8:	10000637          	lui	a2,0x10000
    80001bfc:	4258                	lw	a4,4(a2)
    80001bfe:	1a1046b7          	lui	a3,0x1a104
    80001c02:	2701                	sext.w	a4,a4
    80001c04:	8fd9                	or	a5,a5,a4
    80001c06:	c25c                	sw	a5,4(a2)
    80001c08:	429c                	lw	a5,0(a3)
    80001c0a:	01000737          	lui	a4,0x1000
    80001c0e:	2781                	sext.w	a5,a5
    80001c10:	8fd9                	or	a5,a5,a4
    80001c12:	c29c                	sw	a5,0(a3)
    80001c14:	8082                	ret

0000000080001c16 <uart_cfg_int>:
    80001c16:	00001897          	auipc	a7,0x1
    80001c1a:	94288893          	addi	a7,a7,-1726 # 80002558 <uart>
    80001c1e:	40e8c803          	lbu	a6,1038(a7)
    80001c22:	00b035b3          	snez	a1,a1
    80001c26:	0586                	slli	a1,a1,0x1
    80001c28:	0f987813          	andi	a6,a6,249
    80001c2c:	00c03633          	snez	a2,a2
    80001c30:	00b86833          	or	a6,a6,a1
    80001c34:	060a                	slli	a2,a2,0x2
    80001c36:	00c86833          	or	a6,a6,a2
    80001c3a:	00d036b3          	snez	a3,a3
    80001c3e:	068e                	slli	a3,a3,0x3
    80001c40:	ff687813          	andi	a6,a6,-10
    80001c44:	00e03733          	snez	a4,a4
    80001c48:	00d86833          	or	a6,a6,a3
    80001c4c:	00e86833          	or	a6,a6,a4
    80001c50:	00f037b3          	snez	a5,a5
    80001c54:	fef87813          	andi	a6,a6,-17
    80001c58:	0792                	slli	a5,a5,0x4
    80001c5a:	00f86833          	or	a6,a6,a5
    80001c5e:	4008b023          	sd	zero,1024(a7)
    80001c62:	4008a423          	sw	zero,1032(a7)
    80001c66:	40a89623          	sh	a0,1036(a7)
    80001c6a:	41088723          	sb	a6,1038(a7)
    80001c6e:	4008a823          	sw	zero,1040(a7)
    80001c72:	f2fff06f          	j	80001ba0 <uart_set_cfg_int>

0000000080001c76 <uart_start_send>:
    80001c76:	10000737          	lui	a4,0x10000
    80001c7a:	435c                	lw	a5,4(a4)
    80001c7c:	2781                	sext.w	a5,a5
    80001c7e:	0027e793          	ori	a5,a5,2
    80001c82:	c35c                	sw	a5,4(a4)
    80001c84:	8082                	ret

0000000080001c86 <uart_send_int>:
    80001c86:	715d                	addi	sp,sp,-80
    80001c88:	e062                	sd	s8,0(sp)
    80001c8a:	00001c17          	auipc	s8,0x1
    80001c8e:	8cec0c13          	addi	s8,s8,-1842 # 80002558 <uart>
    80001c92:	40ec4783          	lbu	a5,1038(s8)
    80001c96:	e85a                	sd	s6,16(sp)
    80001c98:	e486                	sd	ra,72(sp)
    80001c9a:	e0a2                	sd	s0,64(sp)
    80001c9c:	fc26                	sd	s1,56(sp)
    80001c9e:	f84a                	sd	s2,48(sp)
    80001ca0:	f44e                	sd	s3,40(sp)
    80001ca2:	f052                	sd	s4,32(sp)
    80001ca4:	ec56                	sd	s5,24(sp)
    80001ca6:	e45e                	sd	s7,8(sp)
    80001ca8:	8ba1                	andi	a5,a5,8
    80001caa:	8b2a                	mv	s6,a0
    80001cac:	c7f9                	beqz	a5,80001d7a <uart_send_int+0xf4>
    80001cae:	0e058e63          	beqz	a1,80001daa <uart_send_int+0x124>
    80001cb2:	c2a1d683          	lhu	a3,-982(gp) # 80002962 <uart+0x40a>
    80001cb6:	1ff00713          	li	a4,511
    80001cba:	c261d483          	lhu	s1,-986(gp) # 8000295e <uart+0x406>
    80001cbe:	c281d783          	lhu	a5,-984(gp) # 80002960 <uart+0x408>
    80001cc2:	0ed76463          	bltu	a4,a3,80001daa <uart_send_int+0x124>
    80001cc6:	00058b9b          	sext.w	s7,a1
    80001cca:	4901                	li	s2,0
    80001ccc:	20000a93          	li	s5,512
    80001cd0:	20000993          	li	s3,512
    80001cd4:	1ff00a13          	li	s4,511
    80001cd8:	0004841b          	sext.w	s0,s1
    80001cdc:	412b873b          	subw	a4,s7,s2
    80001ce0:	08f46363          	bltu	s0,a5,80001d66 <uart_send_int+0xe0>
    80001ce4:	408a843b          	subw	s0,s5,s0
    80001ce8:	0004069b          	sext.w	a3,s0
    80001cec:	0007079b          	sext.w	a5,a4
    80001cf0:	08d7c363          	blt	a5,a3,80001d76 <uart_send_int+0xf0>
    80001cf4:	1442                	slli	s0,s0,0x30
    80001cf6:	9041                	srli	s0,s0,0x30
    80001cf8:	20048513          	addi	a0,s1,512
    80001cfc:	9ca1                	addw	s1,s1,s0
    80001cfe:	012b05b3          	add	a1,s6,s2
    80001d02:	14c2                	slli	s1,s1,0x30
    80001d04:	0124093b          	addw	s2,s0,s2
    80001d08:	8622                	mv	a2,s0
    80001d0a:	9562                	add	a0,a0,s8
    80001d0c:	1942                	slli	s2,s2,0x30
    80001d0e:	90c1                	srli	s1,s1,0x30
    80001d10:	610000ef          	jal	ra,80002320 <m_memcpy>
    80001d14:	03095913          	srli	s2,s2,0x30
    80001d18:	01349363          	bne	s1,s3,80001d1e <uart_send_int+0x98>
    80001d1c:	4481                	li	s1,0
    80001d1e:	40ac5783          	lhu	a5,1034(s8)
    80001d22:	c2919323          	sh	s1,-986(gp) # 8000295e <uart+0x406>
    80001d26:	0009051b          	sext.w	a0,s2
    80001d2a:	9c3d                	addw	s0,s0,a5
    80001d2c:	1442                	slli	s0,s0,0x30
    80001d2e:	9041                	srli	s0,s0,0x30
    80001d30:	c2819523          	sh	s0,-982(gp) # 80002962 <uart+0x40a>
    80001d34:	01757663          	bleu	s7,a0,80001d40 <uart_send_int+0xba>
    80001d38:	c281d783          	lhu	a5,-984(gp) # 80002960 <uart+0x408>
    80001d3c:	f88a7ee3          	bleu	s0,s4,80001cd8 <uart_send_int+0x52>
    80001d40:	10000737          	lui	a4,0x10000
    80001d44:	435c                	lw	a5,4(a4)
    80001d46:	2781                	sext.w	a5,a5
    80001d48:	0027e793          	ori	a5,a5,2
    80001d4c:	c35c                	sw	a5,4(a4)
    80001d4e:	60a6                	ld	ra,72(sp)
    80001d50:	6406                	ld	s0,64(sp)
    80001d52:	74e2                	ld	s1,56(sp)
    80001d54:	7942                	ld	s2,48(sp)
    80001d56:	79a2                	ld	s3,40(sp)
    80001d58:	7a02                	ld	s4,32(sp)
    80001d5a:	6ae2                	ld	s5,24(sp)
    80001d5c:	6b42                	ld	s6,16(sp)
    80001d5e:	6ba2                	ld	s7,8(sp)
    80001d60:	6c02                	ld	s8,0(sp)
    80001d62:	6161                	addi	sp,sp,80
    80001d64:	8082                	ret
    80001d66:	4087843b          	subw	s0,a5,s0
    80001d6a:	0004069b          	sext.w	a3,s0
    80001d6e:	0007079b          	sext.w	a5,a4
    80001d72:	f8d7d1e3          	ble	a3,a5,80001cf4 <uart_send_int+0x6e>
    80001d76:	843a                	mv	s0,a4
    80001d78:	bfb5                	j	80001cf4 <uart_send_int+0x6e>
    80001d7a:	00058b9b          	sext.w	s7,a1
    80001d7e:	020b8463          	beqz	s7,80001da6 <uart_send_int+0x120>
    80001d82:	fffb869b          	addiw	a3,s7,-1
    80001d86:	1682                	slli	a3,a3,0x20
    80001d88:	9281                	srli	a3,a3,0x20
    80001d8a:	0685                	addi	a3,a3,1
    80001d8c:	96aa                	add	a3,a3,a0
    80001d8e:	10000737          	lui	a4,0x10000
    80001d92:	4b5c                	lw	a5,20(a4)
    80001d94:	0207f793          	andi	a5,a5,32
    80001d98:	dfed                	beqz	a5,80001d92 <uart_send_int+0x10c>
    80001d9a:	0b05                	addi	s6,s6,1
    80001d9c:	fffb4783          	lbu	a5,-1(s6)
    80001da0:	c31c                	sw	a5,0(a4)
    80001da2:	fedb18e3          	bne	s6,a3,80001d92 <uart_send_int+0x10c>
    80001da6:	855e                	mv	a0,s7
    80001da8:	b75d                	j	80001d4e <uart_send_int+0xc8>
    80001daa:	4501                	li	a0,0
    80001dac:	bf51                	j	80001d40 <uart_send_int+0xba>

0000000080001dae <uart_recv_int>:
    80001dae:	715d                	addi	sp,sp,-80
    80001db0:	e45e                	sd	s7,8(sp)
    80001db2:	00000b97          	auipc	s7,0x0
    80001db6:	7a6b8b93          	addi	s7,s7,1958 # 80002558 <uart>
    80001dba:	40cba783          	lw	a5,1036(s7)
    80001dbe:	00060737          	lui	a4,0x60
    80001dc2:	e486                	sd	ra,72(sp)
    80001dc4:	e0a2                	sd	s0,64(sp)
    80001dc6:	fc26                	sd	s1,56(sp)
    80001dc8:	f84a                	sd	s2,48(sp)
    80001dca:	f44e                	sd	s3,40(sp)
    80001dcc:	f052                	sd	s4,32(sp)
    80001dce:	ec56                	sd	s5,24(sp)
    80001dd0:	e85a                	sd	s6,16(sp)
    80001dd2:	8ff9                	and	a5,a5,a4
    80001dd4:	cbd5                	beqz	a5,80001e88 <uart_recv_int+0xda>
    80001dd6:	cdf9                	beqz	a1,80001eb4 <uart_recv_int+0x106>
    80001dd8:	c241d783          	lhu	a5,-988(gp) # 8000295c <uart+0x404>
    80001ddc:	c221d483          	lhu	s1,-990(gp) # 8000295a <uart+0x402>
    80001de0:	c201d703          	lhu	a4,-992(gp) # 80002958 <uart+0x400>
    80001de4:	cbe1                	beqz	a5,80001eb4 <uart_recv_int+0x106>
    80001de6:	89aa                	mv	s3,a0
    80001de8:	00058b1b          	sext.w	s6,a1
    80001dec:	4901                	li	s2,0
    80001dee:	20000a93          	li	s5,512
    80001df2:	20000a13          	li	s4,512
    80001df6:	0004841b          	sext.w	s0,s1
    80001dfa:	412b07bb          	subw	a5,s6,s2
    80001dfe:	06e47b63          	bleu	a4,s0,80001e74 <uart_recv_int+0xc6>
    80001e02:	4087043b          	subw	s0,a4,s0
    80001e06:	0004069b          	sext.w	a3,s0
    80001e0a:	0007871b          	sext.w	a4,a5
    80001e0e:	06d74b63          	blt	a4,a3,80001e84 <uart_recv_int+0xd6>
    80001e12:	1442                	slli	s0,s0,0x30
    80001e14:	9041                	srli	s0,s0,0x30
    80001e16:	009b85b3          	add	a1,s7,s1
    80001e1a:	9ca1                	addw	s1,s1,s0
    80001e1c:	01298533          	add	a0,s3,s2
    80001e20:	14c2                	slli	s1,s1,0x30
    80001e22:	0124093b          	addw	s2,s0,s2
    80001e26:	8622                	mv	a2,s0
    80001e28:	1942                	slli	s2,s2,0x30
    80001e2a:	90c1                	srli	s1,s1,0x30
    80001e2c:	4f4000ef          	jal	ra,80002320 <m_memcpy>
    80001e30:	03095913          	srli	s2,s2,0x30
    80001e34:	01449363          	bne	s1,s4,80001e3a <uart_recv_int+0x8c>
    80001e38:	4481                	li	s1,0
    80001e3a:	404bd783          	lhu	a5,1028(s7)
    80001e3e:	c2919123          	sh	s1,-990(gp) # 8000295a <uart+0x402>
    80001e42:	0009051b          	sext.w	a0,s2
    80001e46:	4087843b          	subw	s0,a5,s0
    80001e4a:	03041793          	slli	a5,s0,0x30
    80001e4e:	93c1                	srli	a5,a5,0x30
    80001e50:	c2f19223          	sh	a5,-988(gp) # 8000295c <uart+0x404>
    80001e54:	01657563          	bleu	s6,a0,80001e5e <uart_recv_int+0xb0>
    80001e58:	c201d703          	lhu	a4,-992(gp) # 80002958 <uart+0x400>
    80001e5c:	ffc9                	bnez	a5,80001df6 <uart_recv_int+0x48>
    80001e5e:	60a6                	ld	ra,72(sp)
    80001e60:	6406                	ld	s0,64(sp)
    80001e62:	74e2                	ld	s1,56(sp)
    80001e64:	7942                	ld	s2,48(sp)
    80001e66:	79a2                	ld	s3,40(sp)
    80001e68:	7a02                	ld	s4,32(sp)
    80001e6a:	6ae2                	ld	s5,24(sp)
    80001e6c:	6b42                	ld	s6,16(sp)
    80001e6e:	6ba2                	ld	s7,8(sp)
    80001e70:	6161                	addi	sp,sp,80
    80001e72:	8082                	ret
    80001e74:	408a843b          	subw	s0,s5,s0
    80001e78:	0004069b          	sext.w	a3,s0
    80001e7c:	0007871b          	sext.w	a4,a5
    80001e80:	f8d759e3          	ble	a3,a4,80001e12 <uart_recv_int+0x64>
    80001e84:	843e                	mv	s0,a5
    80001e86:	b771                	j	80001e12 <uart_recv_int+0x64>
    80001e88:	c595                	beqz	a1,80001eb4 <uart_recv_int+0x106>
    80001e8a:	fff5869b          	addiw	a3,a1,-1
    80001e8e:	16c2                	slli	a3,a3,0x30
    80001e90:	92c1                	srli	a3,a3,0x30
    80001e92:	00150793          	addi	a5,a0,1
    80001e96:	96be                	add	a3,a3,a5
    80001e98:	10000737          	lui	a4,0x10000
    80001e9c:	4b5c                	lw	a5,20(a4)
    80001e9e:	8b85                	andi	a5,a5,1
    80001ea0:	dff5                	beqz	a5,80001e9c <uart_recv_int+0xee>
    80001ea2:	431c                	lw	a5,0(a4)
    80001ea4:	0505                	addi	a0,a0,1
    80001ea6:	fef50fa3          	sb	a5,-1(a0)
    80001eaa:	fea699e3          	bne	a3,a0,80001e9c <uart_recv_int+0xee>
    80001eae:	0005851b          	sext.w	a0,a1
    80001eb2:	b775                	j	80001e5e <uart_recv_int+0xb0>
    80001eb4:	4501                	li	a0,0
    80001eb6:	b765                	j	80001e5e <uart_recv_int+0xb0>

0000000080001eb8 <ISR_UART>:
    80001eb8:	1a1046b7          	lui	a3,0x1a104
    80001ebc:	10000637          	lui	a2,0x10000
    80001ec0:	461c                	lw	a5,8(a2)
    80001ec2:	46d8                	lw	a4,12(a3)
    80001ec4:	010005b7          	lui	a1,0x1000
    80001ec8:	8bbd                	andi	a5,a5,15
    80001eca:	2701                	sext.w	a4,a4
    80001ecc:	8f4d                	or	a4,a4,a1
    80001ece:	c6d8                	sw	a4,12(a3)
    80001ed0:	4711                	li	a4,4
    80001ed2:	0ee78d63          	beq	a5,a4,80001fcc <ISR_UART+0x114>
    80001ed6:	06f77a63          	bleu	a5,a4,80001f4a <ISR_UART+0x92>
    80001eda:	4719                	li	a4,6
    80001edc:	16e78063          	beq	a5,a4,8000203c <ISR_UART+0x184>
    80001ee0:	4731                	li	a4,12
    80001ee2:	0ee79463          	bne	a5,a4,80001fca <ISR_UART+0x112>
    80001ee6:	100007b7          	lui	a5,0x10000
    80001eea:	0147c783          	lbu	a5,20(a5) # 10000014 <_tbss_end+0xfffffd0>
    80001eee:	8b85                	andi	a5,a5,1
    80001ef0:	cfa1                	beqz	a5,80001f48 <ISR_UART+0x90>
    80001ef2:	c241d703          	lhu	a4,-988(gp) # 8000295c <uart+0x404>
    80001ef6:	1ff00793          	li	a5,511
    80001efa:	00000517          	auipc	a0,0x0
    80001efe:	65e50513          	addi	a0,a0,1630 # 80002558 <uart>
    80001f02:	18e7eb63          	bltu	a5,a4,80002098 <ISR_UART+0x1e0>
    80001f06:	2705                	addiw	a4,a4,1
    80001f08:	1742                	slli	a4,a4,0x30
    80001f0a:	c201d783          	lhu	a5,-992(gp) # 80002958 <uart+0x400>
    80001f0e:	9341                	srli	a4,a4,0x30
    80001f10:	10000637          	lui	a2,0x10000
    80001f14:	20100813          	li	a6,513
    80001f18:	a019                	j	80001f1e <ISR_UART+0x66>
    80001f1a:	15070463          	beq	a4,a6,80002062 <ISR_UART+0x1aa>
    80001f1e:	420c                	lw	a1,0(a2)
    80001f20:	00f506b3          	add	a3,a0,a5
    80001f24:	2785                	addiw	a5,a5,1
    80001f26:	00b68023          	sb	a1,0(a3) # 1a104000 <_tbss_end+0x1a103fbc>
    80001f2a:	01464683          	lbu	a3,20(a2) # 10000014 <_tbss_end+0xfffffd0>
    80001f2e:	1ff7f793          	andi	a5,a5,511
    80001f32:	0017059b          	addiw	a1,a4,1
    80001f36:	c2e19223          	sh	a4,-988(gp) # 8000295c <uart+0x404>
    80001f3a:	c2f19023          	sh	a5,-992(gp) # 80002958 <uart+0x400>
    80001f3e:	03059713          	slli	a4,a1,0x30
    80001f42:	8a85                	andi	a3,a3,1
    80001f44:	9341                	srli	a4,a4,0x30
    80001f46:	faf1                	bnez	a3,80001f1a <ISR_UART+0x62>
    80001f48:	8082                	ret
    80001f4a:	4709                	li	a4,2
    80001f4c:	06e79e63          	bne	a5,a4,80001fc8 <ISR_UART+0x110>
    80001f50:	c2a1d783          	lhu	a5,-982(gp) # 80002962 <uart+0x40a>
    80001f54:	00000517          	auipc	a0,0x0
    80001f58:	60450513          	addi	a0,a0,1540 # 80002558 <uart>
    80001f5c:	0e078e63          	beqz	a5,80002058 <ISR_UART+0x1a0>
    80001f60:	fc078e9b          	addiw	t4,a5,-64
    80001f64:	1ec2                	slli	t4,t4,0x30
    80001f66:	030ede93          	srli	t4,t4,0x30
    80001f6a:	c281d683          	lhu	a3,-984(gp) # 80002960 <uart+0x408>
    80001f6e:	4301                	li	t1,0
    80001f70:	10000637          	lui	a2,0x10000
    80001f74:	000e8e1b          	sext.w	t3,t4
    80001f78:	a005                	j	80001f98 <ISR_UART+0xe0>
    80001f7a:	0e078a63          	beqz	a5,8000206e <ISR_UART+0x1b6>
    80001f7e:	2008c703          	lbu	a4,512(a7)
    80001f82:	03081793          	slli	a5,a6,0x30
    80001f86:	93c1                	srli	a5,a5,0x30
    80001f88:	c218                	sw	a4,0(a2)
    80001f8a:	1ff5f693          	andi	a3,a1,511
    80001f8e:	0e078763          	beqz	a5,8000207c <ISR_UART+0x1c4>
    80001f92:	4305                	li	t1,1
    80001f94:	0fc78d63          	beq	a5,t3,8000208e <ISR_UART+0x1d6>
    80001f98:	4a58                	lw	a4,20(a2)
    80001f9a:	00d508b3          	add	a7,a0,a3
    80001f9e:	fff7881b          	addiw	a6,a5,-1
    80001fa2:	06077713          	andi	a4,a4,96
    80001fa6:	0016859b          	addiw	a1,a3,1
    80001faa:	fb61                	bnez	a4,80001f7a <ISR_UART+0xc2>
    80001fac:	f8030ee3          	beqz	t1,80001f48 <ISR_UART+0x90>
    80001fb0:	c2f19523          	sh	a5,-982(gp) # 80002962 <uart+0x40a>
    80001fb4:	c2d19423          	sh	a3,-984(gp) # 80002960 <uart+0x408>
    80001fb8:	fbc1                	bnez	a5,80001f48 <ISR_UART+0x90>
    80001fba:	10000737          	lui	a4,0x10000
    80001fbe:	435c                	lw	a5,4(a4)
    80001fc0:	2781                	sext.w	a5,a5
    80001fc2:	9bf5                	andi	a5,a5,-3
    80001fc4:	c35c                	sw	a5,4(a4)
    80001fc6:	8082                	ret
    80001fc8:	8082                	ret
    80001fca:	8082                	ret
    80001fcc:	c241d783          	lhu	a5,-988(gp) # 8000295c <uart+0x404>
    80001fd0:	02078f1b          	addiw	t5,a5,32
    80001fd4:	1f42                	slli	t5,t5,0x30
    80001fd6:	030f5f13          	srli	t5,t5,0x30
    80001fda:	c201d703          	lhu	a4,-992(gp) # 80002958 <uart+0x400>
    80001fde:	4801                	li	a6,0
    80001fe0:	0007869b          	sext.w	a3,a5
    80001fe4:	1ff00313          	li	t1,511
    80001fe8:	10000eb7          	lui	t4,0x10000
    80001fec:	00000897          	auipc	a7,0x0
    80001ff0:	56c88893          	addi	a7,a7,1388 # 80002558 <uart>
    80001ff4:	000f0e1b          	sext.w	t3,t5
    80001ff8:	a839                	j	80002016 <ISR_UART+0x15e>
    80001ffa:	000ea703          	lw	a4,0(t4) # 10000000 <_tbss_end+0xfffffbc>
    80001ffe:	03051793          	slli	a5,a0,0x30
    80002002:	93c1                	srli	a5,a5,0x30
    80002004:	00e58023          	sb	a4,0(a1) # 1000000 <_tbss_end+0xffffbc>
    80002008:	0007869b          	sext.w	a3,a5
    8000200c:	1ff67713          	andi	a4,a2,511
    80002010:	4805                	li	a6,1
    80002012:	05c68963          	beq	a3,t3,80002064 <ISR_UART+0x1ac>
    80002016:	0017851b          	addiw	a0,a5,1
    8000201a:	00e885b3          	add	a1,a7,a4
    8000201e:	0017061b          	addiw	a2,a4,1
    80002022:	fcd37ce3          	bleu	a3,t1,80001ffa <ISR_UART+0x142>
    80002026:	00080663          	beqz	a6,80002032 <ISR_UART+0x17a>
    8000202a:	c2e19023          	sh	a4,-992(gp) # 80002958 <uart+0x400>
    8000202e:	c2f19223          	sh	a5,-988(gp) # 8000295c <uart+0x404>
    80002032:	100007b7          	lui	a5,0x10000
    80002036:	0147c783          	lbu	a5,20(a5) # 10000014 <_tbss_end+0xfffffd0>
    8000203a:	8082                	ret
    8000203c:	4a5c                	lw	a5,20(a2)
    8000203e:	8b89                	andi	a5,a5,2
    80002040:	f00784e3          	beqz	a5,80001f48 <ISR_UART+0x90>
    80002044:	00000797          	auipc	a5,0x0
    80002048:	51478793          	addi	a5,a5,1300 # 80002558 <uart>
    8000204c:	4107a783          	lw	a5,1040(a5)
    80002050:	2785                	addiw	a5,a5,1
    80002052:	c2f1a823          	sw	a5,-976(gp) # 80002968 <uart+0x410>
    80002056:	8082                	ret
    80002058:	425c                	lw	a5,4(a2)
    8000205a:	2781                	sext.w	a5,a5
    8000205c:	9bf5                	andi	a5,a5,-3
    8000205e:	c25c                	sw	a5,4(a2)
    80002060:	8082                	ret
    80002062:	8082                	ret
    80002064:	c2e19023          	sh	a4,-992(gp) # 80002958 <uart+0x400>
    80002068:	c3e19223          	sh	t5,-988(gp) # 8000295c <uart+0x404>
    8000206c:	bdad                	j	80001ee6 <ISR_UART+0x2e>
    8000206e:	f40306e3          	beqz	t1,80001fba <ISR_UART+0x102>
    80002072:	c2019523          	sh	zero,-982(gp) # 80002962 <uart+0x40a>
    80002076:	c2d19423          	sh	a3,-984(gp) # 80002960 <uart+0x408>
    8000207a:	b781                	j	80001fba <ISR_UART+0x102>
    8000207c:	425c                	lw	a5,4(a2)
    8000207e:	c2019523          	sh	zero,-982(gp) # 80002962 <uart+0x40a>
    80002082:	c2d19423          	sh	a3,-984(gp) # 80002960 <uart+0x408>
    80002086:	2781                	sext.w	a5,a5
    80002088:	9bf5                	andi	a5,a5,-3
    8000208a:	c25c                	sw	a5,4(a2)
    8000208c:	8082                	ret
    8000208e:	c3d19523          	sh	t4,-982(gp) # 80002962 <uart+0x40a>
    80002092:	c2d19423          	sh	a3,-984(gp) # 80002960 <uart+0x408>
    80002096:	8082                	ret
    80002098:	8082                	ret

000000008000209a <uart_send>:
    8000209a:	c19d                	beqz	a1,800020c0 <uart_send+0x26>
    8000209c:	fff5869b          	addiw	a3,a1,-1
    800020a0:	1682                	slli	a3,a3,0x20
    800020a2:	9281                	srli	a3,a3,0x20
    800020a4:	0685                	addi	a3,a3,1
    800020a6:	96aa                	add	a3,a3,a0
    800020a8:	10000737          	lui	a4,0x10000
    800020ac:	4b5c                	lw	a5,20(a4)
    800020ae:	0207f793          	andi	a5,a5,32
    800020b2:	dfed                	beqz	a5,800020ac <uart_send+0x12>
    800020b4:	0505                	addi	a0,a0,1
    800020b6:	fff54783          	lbu	a5,-1(a0)
    800020ba:	c31c                	sw	a5,0(a4)
    800020bc:	fed518e3          	bne	a0,a3,800020ac <uart_send+0x12>
    800020c0:	8082                	ret

00000000800020c2 <uart_sendstr>:
    800020c2:	00054683          	lbu	a3,0(a0)
    800020c6:	ce89                	beqz	a3,800020e0 <uart_sendstr+0x1e>
    800020c8:	10000737          	lui	a4,0x10000
    800020cc:	4b5c                	lw	a5,20(a4)
    800020ce:	0207f793          	andi	a5,a5,32
    800020d2:	dfed                	beqz	a5,800020cc <uart_sendstr+0xa>
    800020d4:	2681                	sext.w	a3,a3
    800020d6:	0505                	addi	a0,a0,1
    800020d8:	c314                	sw	a3,0(a4)
    800020da:	00054683          	lbu	a3,0(a0)
    800020de:	f6fd                	bnez	a3,800020cc <uart_sendstr+0xa>
    800020e0:	8082                	ret

00000000800020e2 <uart_getchar>:
    800020e2:	10000737          	lui	a4,0x10000
    800020e6:	4b5c                	lw	a5,20(a4)
    800020e8:	8b85                	andi	a5,a5,1
    800020ea:	dff5                	beqz	a5,800020e6 <uart_getchar+0x4>
    800020ec:	4308                	lw	a0,0(a4)
    800020ee:	0ff57513          	andi	a0,a0,255
    800020f2:	8082                	ret

00000000800020f4 <uart_sendchar>:
    800020f4:	10000737          	lui	a4,0x10000
    800020f8:	4b5c                	lw	a5,20(a4)
    800020fa:	0207f793          	andi	a5,a5,32
    800020fe:	dfed                	beqz	a5,800020f8 <uart_sendchar+0x4>
    80002100:	2501                	sext.w	a0,a0
    80002102:	c308                	sw	a0,0(a4)
    80002104:	8082                	ret

0000000080002106 <uart_wait_tx_done>:
    80002106:	10000737          	lui	a4,0x10000
    8000210a:	4b5c                	lw	a5,20(a4)
    8000210c:	0407f793          	andi	a5,a5,64
    80002110:	dfed                	beqz	a5,8000210a <uart_wait_tx_done+0x4>
    80002112:	8082                	ret

0000000080002114 <uart_is_tx_ready>:
    80002114:	100007b7          	lui	a5,0x10000
    80002118:	4bc8                	lw	a0,20(a5)
    8000211a:	8115                	srli	a0,a0,0x5
    8000211c:	8905                	andi	a0,a0,1
    8000211e:	8082                	ret

0000000080002120 <uart_is_rx_ready>:
    80002120:	100007b7          	lui	a5,0x10000
    80002124:	4bc8                	lw	a0,20(a5)
    80002126:	8905                	andi	a0,a0,1
    80002128:	8082                	ret

000000008000212a <set_pin_function>:
    8000212a:	1a107737          	lui	a4,0x1a107
    8000212e:	431c                	lw	a5,0(a4)
    80002130:	1141                	addi	sp,sp,-16
    80002132:	00a595bb          	sllw	a1,a1,a0
    80002136:	2781                	sext.w	a5,a5
    80002138:	c63e                	sw	a5,12(sp)
    8000213a:	46b2                	lw	a3,12(sp)
    8000213c:	4785                	li	a5,1
    8000213e:	00a797bb          	sllw	a5,a5,a0
    80002142:	fff7c793          	not	a5,a5
    80002146:	8ff5                	and	a5,a5,a3
    80002148:	2781                	sext.w	a5,a5
    8000214a:	c63e                	sw	a5,12(sp)
    8000214c:	47b2                	lw	a5,12(sp)
    8000214e:	8fcd                	or	a5,a5,a1
    80002150:	2781                	sext.w	a5,a5
    80002152:	c63e                	sw	a5,12(sp)
    80002154:	47b2                	lw	a5,12(sp)
    80002156:	2781                	sext.w	a5,a5
    80002158:	c31c                	sw	a5,0(a4)
    8000215a:	0141                	addi	sp,sp,16
    8000215c:	8082                	ret

000000008000215e <get_pin_function>:
    8000215e:	1a1077b7          	lui	a5,0x1a107
    80002162:	439c                	lw	a5,0(a5)
    80002164:	1141                	addi	sp,sp,-16
    80002166:	2781                	sext.w	a5,a5
    80002168:	c63e                	sw	a5,12(sp)
    8000216a:	47b2                	lw	a5,12(sp)
    8000216c:	40a7d53b          	sraw	a0,a5,a0
    80002170:	8905                	andi	a0,a0,1
    80002172:	c62a                	sw	a0,12(sp)
    80002174:	4532                	lw	a0,12(sp)
    80002176:	0141                	addi	sp,sp,16
    80002178:	2501                	sext.w	a0,a0
    8000217a:	8082                	ret

000000008000217c <set_gpio_pin_direction>:
    8000217c:	1a1017b7          	lui	a5,0x1a101
    80002180:	4398                	lw	a4,0(a5)
    80002182:	1141                	addi	sp,sp,-16
    80002184:	4785                	li	a5,1
    80002186:	2701                	sext.w	a4,a4
    80002188:	c63a                	sw	a4,12(sp)
    8000218a:	00a7953b          	sllw	a0,a5,a0
    8000218e:	ed91                	bnez	a1,800021aa <set_gpio_pin_direction+0x2e>
    80002190:	47b2                	lw	a5,12(sp)
    80002192:	fff54513          	not	a0,a0
    80002196:	1a101737          	lui	a4,0x1a101
    8000219a:	8d7d                	and	a0,a0,a5
    8000219c:	2501                	sext.w	a0,a0
    8000219e:	c62a                	sw	a0,12(sp)
    800021a0:	47b2                	lw	a5,12(sp)
    800021a2:	2781                	sext.w	a5,a5
    800021a4:	c31c                	sw	a5,0(a4)
    800021a6:	0141                	addi	sp,sp,16
    800021a8:	8082                	ret
    800021aa:	47b2                	lw	a5,12(sp)
    800021ac:	0005071b          	sext.w	a4,a0
    800021b0:	2781                	sext.w	a5,a5
    800021b2:	8fd9                	or	a5,a5,a4
    800021b4:	c63e                	sw	a5,12(sp)
    800021b6:	47b2                	lw	a5,12(sp)
    800021b8:	1a101737          	lui	a4,0x1a101
    800021bc:	2781                	sext.w	a5,a5
    800021be:	c31c                	sw	a5,0(a4)
    800021c0:	0141                	addi	sp,sp,16
    800021c2:	8082                	ret

00000000800021c4 <get_gpio_pin_direction>:
    800021c4:	1a1017b7          	lui	a5,0x1a101
    800021c8:	4398                	lw	a4,0(a5)
    800021ca:	1141                	addi	sp,sp,-16
    800021cc:	0015151b          	slliw	a0,a0,0x1
    800021d0:	2701                	sext.w	a4,a4
    800021d2:	c63a                	sw	a4,12(sp)
    800021d4:	47b2                	lw	a5,12(sp)
    800021d6:	40a7d7bb          	sraw	a5,a5,a0
    800021da:	8b85                	andi	a5,a5,1
    800021dc:	c63e                	sw	a5,12(sp)
    800021de:	4532                	lw	a0,12(sp)
    800021e0:	0141                	addi	sp,sp,16
    800021e2:	2501                	sext.w	a0,a0
    800021e4:	8082                	ret

00000000800021e6 <set_gpio_pin_value>:
    800021e6:	1a1017b7          	lui	a5,0x1a101
    800021ea:	4798                	lw	a4,8(a5)
    800021ec:	1141                	addi	sp,sp,-16
    800021ee:	4785                	li	a5,1
    800021f0:	2701                	sext.w	a4,a4
    800021f2:	c63a                	sw	a4,12(sp)
    800021f4:	00a7953b          	sllw	a0,a5,a0
    800021f8:	ed91                	bnez	a1,80002214 <set_gpio_pin_value+0x2e>
    800021fa:	47b2                	lw	a5,12(sp)
    800021fc:	fff54513          	not	a0,a0
    80002200:	1a101737          	lui	a4,0x1a101
    80002204:	8d7d                	and	a0,a0,a5
    80002206:	2501                	sext.w	a0,a0
    80002208:	c62a                	sw	a0,12(sp)
    8000220a:	47b2                	lw	a5,12(sp)
    8000220c:	2781                	sext.w	a5,a5
    8000220e:	c71c                	sw	a5,8(a4)
    80002210:	0141                	addi	sp,sp,16
    80002212:	8082                	ret
    80002214:	47b2                	lw	a5,12(sp)
    80002216:	0005071b          	sext.w	a4,a0
    8000221a:	2781                	sext.w	a5,a5
    8000221c:	8fd9                	or	a5,a5,a4
    8000221e:	c63e                	sw	a5,12(sp)
    80002220:	47b2                	lw	a5,12(sp)
    80002222:	1a101737          	lui	a4,0x1a101
    80002226:	2781                	sext.w	a5,a5
    80002228:	c71c                	sw	a5,8(a4)
    8000222a:	0141                	addi	sp,sp,16
    8000222c:	8082                	ret

000000008000222e <get_gpio_pin_value>:
    8000222e:	1a1017b7          	lui	a5,0x1a101
    80002232:	43dc                	lw	a5,4(a5)
    80002234:	1141                	addi	sp,sp,-16
    80002236:	2781                	sext.w	a5,a5
    80002238:	c63e                	sw	a5,12(sp)
    8000223a:	47b2                	lw	a5,12(sp)
    8000223c:	40a7d53b          	sraw	a0,a5,a0
    80002240:	8905                	andi	a0,a0,1
    80002242:	c62a                	sw	a0,12(sp)
    80002244:	4532                	lw	a0,12(sp)
    80002246:	0141                	addi	sp,sp,16
    80002248:	2501                	sext.w	a0,a0
    8000224a:	8082                	ret

000000008000224c <set_gpio_pin_irq_en>:
    8000224c:	1a1017b7          	lui	a5,0x1a101
    80002250:	47dc                	lw	a5,12(a5)
    80002252:	4705                	li	a4,1
    80002254:	00a7153b          	sllw	a0,a4,a0
    80002258:	2781                	sext.w	a5,a5
    8000225a:	0005071b          	sext.w	a4,a0
    8000225e:	8f5d                	or	a4,a4,a5
    80002260:	e591                	bnez	a1,8000226c <set_gpio_pin_irq_en+0x20>
    80002262:	fff54513          	not	a0,a0
    80002266:	8fe9                	and	a5,a5,a0
    80002268:	0007871b          	sext.w	a4,a5
    8000226c:	1a1017b7          	lui	a5,0x1a101
    80002270:	c7d8                	sw	a4,12(a5)
    80002272:	8082                	ret

0000000080002274 <set_gpio_pin_irq_type>:
    80002274:	1a1017b7          	lui	a5,0x1a101
    80002278:	4b94                	lw	a3,16(a5)
    8000227a:	4bd8                	lw	a4,20(a5)
    8000227c:	4785                	li	a5,1
    8000227e:	00a7953b          	sllw	a0,a5,a0
    80002282:	2681                	sext.w	a3,a3
    80002284:	0005079b          	sext.w	a5,a0
    80002288:	0015f813          	andi	a6,a1,1
    8000228c:	2701                	sext.w	a4,a4
    8000228e:	00f6e633          	or	a2,a3,a5
    80002292:	00081763          	bnez	a6,800022a0 <set_gpio_pin_irq_type+0x2c>
    80002296:	fff54613          	not	a2,a0
    8000229a:	8ef1                	and	a3,a3,a2
    8000229c:	0006861b          	sext.w	a2,a3
    800022a0:	8989                	andi	a1,a1,2
    800022a2:	8fd9                	or	a5,a5,a4
    800022a4:	e591                	bnez	a1,800022b0 <set_gpio_pin_irq_type+0x3c>
    800022a6:	fff54513          	not	a0,a0
    800022aa:	8d79                	and	a0,a0,a4
    800022ac:	0005079b          	sext.w	a5,a0
    800022b0:	1a101737          	lui	a4,0x1a101
    800022b4:	cb10                	sw	a2,16(a4)
    800022b6:	cb5c                	sw	a5,20(a4)
    800022b8:	8082                	ret

00000000800022ba <get_gpio_irq_status>:
    800022ba:	1a1017b7          	lui	a5,0x1a101
    800022be:	4f88                	lw	a0,24(a5)
    800022c0:	2501                	sext.w	a0,a0
    800022c2:	8082                	ret

00000000800022c4 <ISR_GPIO>:
    800022c4:	a001                	j	800022c4 <ISR_GPIO>

00000000800022c6 <ISR_SPIM0>:
    800022c6:	a001                	j	800022c6 <ISR_SPIM0>

00000000800022c8 <ISR_SPIM1>:
    800022c8:	a001                	j	800022c8 <ISR_SPIM1>

00000000800022ca <ISR_TA_OVF>:
    800022ca:	a001                	j	800022ca <ISR_TA_OVF>

00000000800022cc <ISR_TA_CMP>:
    800022cc:	a001                	j	800022cc <ISR_TA_CMP>

00000000800022ce <ISR_TB_OVF>:
    800022ce:	a001                	j	800022ce <ISR_TB_OVF>

00000000800022d0 <ISR_TB_CMP>:
    800022d0:	a001                	j	800022d0 <ISR_TB_CMP>

00000000800022d2 <eoc>:
    800022d2:	1141                	addi	sp,sp,-16
    800022d4:	e406                	sd	ra,8(sp)
    800022d6:	1a1077b7          	lui	a5,0x1a107
    800022da:	c10d                	beqz	a0,800022fc <eoc+0x2a>
    800022dc:	4705                	li	a4,1
    800022de:	cbd8                	sw	a4,20(a5)
    800022e0:	4585                	li	a1,1
    800022e2:	4521                	li	a0,8
    800022e4:	e47ff0ef          	jal	ra,8000212a <set_pin_function>
    800022e8:	4585                	li	a1,1
    800022ea:	4521                	li	a0,8
    800022ec:	e91ff0ef          	jal	ra,8000217c <set_gpio_pin_direction>
    800022f0:	60a2                	ld	ra,8(sp)
    800022f2:	4585                	li	a1,1
    800022f4:	4521                	li	a0,8
    800022f6:	0141                	addi	sp,sp,16
    800022f8:	eefff06f          	j	800021e6 <set_gpio_pin_value>
    800022fc:	0007aa23          	sw	zero,20(a5) # 1a107014 <_tbss_end+0x1a106fd0>
    80002300:	b7c5                	j	800022e0 <eoc+0xe>

0000000080002302 <sleep_busy>:
    80002302:	1141                	addi	sp,sp,-16
    80002304:	c62a                	sw	a0,12(sp)
    80002306:	47b2                	lw	a5,12(sp)
    80002308:	2781                	sext.w	a5,a5
    8000230a:	00f05963          	blez	a5,8000231c <sleep_busy+0x1a>
    8000230e:	4701                	li	a4,0
    80002310:	0001                	nop
    80002312:	47b2                	lw	a5,12(sp)
    80002314:	2705                	addiw	a4,a4,1
    80002316:	2781                	sext.w	a5,a5
    80002318:	fef74ce3          	blt	a4,a5,80002310 <sleep_busy+0xe>
    8000231c:	0141                	addi	sp,sp,16
    8000231e:	8082                	ret

0000000080002320 <m_memcpy>:
    80002320:	fff6071b          	addiw	a4,a2,-1
    80002324:	ce09                	beqz	a2,8000233e <m_memcpy+0x1e>
    80002326:	1702                	slli	a4,a4,0x20
    80002328:	9301                	srli	a4,a4,0x20
    8000232a:	0705                	addi	a4,a4,1
    8000232c:	972a                	add	a4,a4,a0
    8000232e:	0585                	addi	a1,a1,1
    80002330:	fff5c783          	lbu	a5,-1(a1)
    80002334:	0505                	addi	a0,a0,1
    80002336:	fef50fa3          	sb	a5,-1(a0)
    8000233a:	fea71ae3          	bne	a4,a0,8000232e <m_memcpy+0xe>
    8000233e:	8082                	ret

Disassembly of section .text.startup:

0000000080002340 <main>:
    80002340:	1141                	addi	sp,sp,-16
    80002342:	45e9                	li	a1,26
    80002344:	4501                	li	a0,0
    80002346:	e022                	sd	s0,0(sp)
    80002348:	e406                	sd	ra,8(sp)
    8000234a:	00000417          	auipc	s0,0x0
    8000234e:	02e40413          	addi	s0,s0,46 # 80002378 <main+0x38>
    80002352:	ffcff0ef          	jal	ra,80001b4e <uart_set_cfg>
    80002356:	8522                	mv	a0,s0
    80002358:	d6bff0ef          	jal	ra,800020c2 <uart_sendstr>
    8000235c:	bfed                	j	80002356 <main+0x16>
    8000235e:	1141                	addi	sp,sp,-16
    80002360:	00000517          	auipc	a0,0x0
    80002364:	04850513          	addi	a0,a0,72 # 800023a8 <main+0x68>
    80002368:	e406                	sd	ra,8(sp)
    8000236a:	8d0ff0ef          	jal	ra,8000143a <printstr>
    8000236e:	60a2                	ld	ra,8(sp)
    80002370:	557d                	li	a0,-1
    80002372:	0141                	addi	sp,sp,16
    80002374:	8082                	ret
